

Microchip MPLAB XC8 Assembler V2.46 build 20240104201356 
                                                                                               Tue Jan 14 21:51:19 2025

Microchip MPLAB XC8 C Compiler v2.46 (Free license) build 20240104201356 Og1 
     1                           	processor	16F877A
     2                           	pagewidth 120
     3                           	opt	flic
     4                           	psect	idataCOMMON,global,class=CODE,delta=2,noexec
     5                           	psect	cinit,global,class=CODE,merge=1,delta=2
     6                           	psect	bssCOMMON,global,class=COMMON,space=1,delta=1,noexec
     7                           	psect	dataCOMMON,global,class=COMMON,space=1,delta=1,noexec
     8                           	psect	bssBANK0,global,class=BANK0,space=1,delta=1,noexec
     9                           	psect	bssBANK1,global,class=BANK1,space=1,delta=1,noexec
    10                           	psect	clrtext,global,class=CODE,delta=2
    11                           	psect	cstackCOMMON,global,class=COMMON,space=1,delta=1,noexec
    12                           	psect	cstackBANK0,global,class=BANK0,space=1,delta=1,noexec
    13                           	psect	maintext,global,class=CODE,split=1,delta=2
    14                           	psect	text1,local,class=CODE,merge=1,delta=2
    15                           	psect	text2,local,class=CODE,merge=1,delta=2
    16                           	psect	text3,local,class=CODE,merge=1,delta=2,group=1
    17                           	psect	text4,local,class=CODE,merge=1,delta=2
    18                           	psect	text5,local,class=CODE,merge=1,delta=2
    19                           	psect	text6,local,class=CODE,merge=1,delta=2,group=1
    20                           	psect	text7,local,class=CODE,merge=1,delta=2
    21                           	psect	text8,local,class=CODE,merge=1,delta=2
    22                           	psect	text9,local,class=CODE,merge=1,delta=2,group=1
    23                           	psect	text10,local,class=CODE,merge=1,delta=2,group=1
    24                           	psect	text11,local,class=CODE,merge=1,delta=2,group=1
    25                           	psect	text12,local,class=CODE,merge=1,delta=2
    26                           	psect	text13,local,class=CODE,merge=1,delta=2
    27                           	psect	text14,local,class=CODE,merge=1,delta=2
    28                           	psect	text15,local,class=CODE,merge=1,delta=2
    29                           	psect	text16,local,class=CODE,merge=1,delta=2
    30                           	psect	text17,local,class=CODE,merge=1,delta=2,group=1
    31                           	psect	text18,local,class=CODE,merge=1,delta=2,group=1
    32                           	psect	text19,local,class=CODE,merge=1,delta=2,group=1
    33                           	psect	text20,local,class=CODE,merge=1,delta=2
    34                           	psect	text21,local,class=CODE,merge=1,delta=2
    35                           	psect	text22,local,class=CODE,merge=1,delta=2
    36                           	psect	text23,local,class=CODE,merge=1,delta=2
    37                           	psect	text24,local,class=CODE,merge=1,delta=2
    38                           	psect	text25,local,class=CODE,merge=1,delta=2
    39                           	psect	text26,local,class=CODE,merge=1,delta=2
    40                           	psect	text27,local,class=CODE,merge=1,delta=2
    41                           	psect	text28,local,class=CODE,merge=1,delta=2
    42                           	psect	text29,local,class=CODE,merge=1,delta=2
    43                           	psect	text30,local,class=CODE,merge=1,delta=2
    44                           	psect	text31,local,class=CODE,merge=1,delta=2
    45                           	psect	text32,local,class=CODE,merge=1,delta=2
    46                           	psect	text33,local,class=CODE,merge=1,delta=2
    47                           	psect	text34,local,class=CODE,merge=1,delta=2
    48                           	psect	text35,local,class=CODE,merge=1,delta=2
    49                           	psect	intentry,global,class=CODE,delta=2
    50                           	psect	config,global,abs,ovrld,class=CONFIG,space=4,delta=2,noexec
    51                           	dabs	1,0x7E,2
    52     0000                     
    53                           ; Generated 12/10/2023 GMT
    54                           ; 
    55                           ; Copyright © 2023, Microchip Technology Inc. and its subsidiaries ("Microchip")
    56                           ; All rights reserved.
    57                           ; 
    58                           ; This software is developed by Microchip Technology Inc. and its subsidiaries ("Microch
      +                          ip").
    59                           ; 
    60                           ; Redistribution and use in source and binary forms, with or without modification, are
    61                           ; permitted provided that the following conditions are met:
    62                           ; 
    63                           ;     1. Redistributions of source code must retain the above copyright notice, this lis
      +                          t of
    64                           ;        conditions and the following disclaimer.
    65                           ; 
    66                           ;     2. Redistributions in binary form must reproduce the above copyright notice, this 
      +                          list
    67                           ;        of conditions and the following disclaimer in the documentation and/or other
    68                           ;        materials provided with the distribution. Publication is not required when
    69                           ;        this file is used in an embedded application.
    70                           ; 
    71                           ;     3. Microchip's name may not be used to endorse or promote products derived from th
      +                          is
    72                           ;        software without specific prior written permission.
    73                           ; 
    74                           ; THIS SOFTWARE IS PROVIDED BY MICROCHIP "AS IS" AND ANY EXPRESS OR IMPLIED WARRANTIES,
    75                           ; INCLUDING, BUT NOT LIMITED TO, THE IMPLIED WARRANTIES OF MERCHANTABILITY AND FITNESS F
      +                          OR
    76                           ; PURPOSE ARE DISCLAIMED.  IN NO EVENT SHALL MICROCHIP BE LIABLE FOR ANY DIRECT, INDIREC
      +                          T,
    77                           ; INCIDENTAL, SPECIAL, EXEMPLARY, OR CONSEQUENTIAL DAMAGES (INCLUDING BUT NOT LIMITED TO
    78                           ; PROCUREMENT OF SUBSTITUTE GOODS OR SERVICES; LOSS OF USE, DATA OR PROFITS; OR BUSINESS
    79                           ; INTERRUPTION) HOWSOEVER CAUSED AND ON ANY THEORY OF LIABILITY, WHETHER IN CONTRACT, ST
      +                          RICT
    80                           ; LIABILITY, OR TORT (INCLUDING NEGLIGENCE OR OTHERWISE) ARISING IN ANY WAY OUT OF THE U
      +                          SE OF
    81                           ; THIS SOFTWARE, EVEN IF ADVISED OF THE POSSIBILITY OF SUCH DAMAGE.
    82                           ; 
    83                           ; 
    84                           ; Code-generator required, PIC16F877A Definitions
    85                           ; 
    86                           ; SFR Addresses
    87     0000                     	;# 
    88     0001                     	;# 
    89     0002                     	;# 
    90     0003                     	;# 
    91     0004                     	;# 
    92     0005                     	;# 
    93     0006                     	;# 
    94     0007                     	;# 
    95     0008                     	;# 
    96     0009                     	;# 
    97     000A                     	;# 
    98     000B                     	;# 
    99     000C                     	;# 
   100     000D                     	;# 
   101     000E                     	;# 
   102     000E                     	;# 
   103     000F                     	;# 
   104     0010                     	;# 
   105     0011                     	;# 
   106     0012                     	;# 
   107     0013                     	;# 
   108     0014                     	;# 
   109     0015                     	;# 
   110     0015                     	;# 
   111     0016                     	;# 
   112     0017                     	;# 
   113     0018                     	;# 
   114     0019                     	;# 
   115     001A                     	;# 
   116     001B                     	;# 
   117     001B                     	;# 
   118     001C                     	;# 
   119     001D                     	;# 
   120     001E                     	;# 
   121     001F                     	;# 
   122     0081                     	;# 
   123     0085                     	;# 
   124     0086                     	;# 
   125     0087                     	;# 
   126     0088                     	;# 
   127     0089                     	;# 
   128     008C                     	;# 
   129     008D                     	;# 
   130     008E                     	;# 
   131     0091                     	;# 
   132     0092                     	;# 
   133     0093                     	;# 
   134     0094                     	;# 
   135     0098                     	;# 
   136     0099                     	;# 
   137     009C                     	;# 
   138     009D                     	;# 
   139     009E                     	;# 
   140     009F                     	;# 
   141     010C                     	;# 
   142     010D                     	;# 
   143     010E                     	;# 
   144     010F                     	;# 
   145     018C                     	;# 
   146     018D                     	;# 
   147     0000                     	;# 
   148     0001                     	;# 
   149     0002                     	;# 
   150     0003                     	;# 
   151     0004                     	;# 
   152     0005                     	;# 
   153     0006                     	;# 
   154     0007                     	;# 
   155     0008                     	;# 
   156     0009                     	;# 
   157     000A                     	;# 
   158     000B                     	;# 
   159     000C                     	;# 
   160     000D                     	;# 
   161     000E                     	;# 
   162     000E                     	;# 
   163     000F                     	;# 
   164     0010                     	;# 
   165     0011                     	;# 
   166     0012                     	;# 
   167     0013                     	;# 
   168     0014                     	;# 
   169     0015                     	;# 
   170     0015                     	;# 
   171     0016                     	;# 
   172     0017                     	;# 
   173     0018                     	;# 
   174     0019                     	;# 
   175     001A                     	;# 
   176     001B                     	;# 
   177     001B                     	;# 
   178     001C                     	;# 
   179     001D                     	;# 
   180     001E                     	;# 
   181     001F                     	;# 
   182     0081                     	;# 
   183     0085                     	;# 
   184     0086                     	;# 
   185     0087                     	;# 
   186     0088                     	;# 
   187     0089                     	;# 
   188     008C                     	;# 
   189     008D                     	;# 
   190     008E                     	;# 
   191     0091                     	;# 
   192     0092                     	;# 
   193     0093                     	;# 
   194     0094                     	;# 
   195     0098                     	;# 
   196     0099                     	;# 
   197     009C                     	;# 
   198     009D                     	;# 
   199     009E                     	;# 
   200     009F                     	;# 
   201     010C                     	;# 
   202     010D                     	;# 
   203     010E                     	;# 
   204     010F                     	;# 
   205     018C                     	;# 
   206     018D                     	;# 
   207                           
   208                           	psect	idataCOMMON
   209     07FF                     __pidataCOMMON:
   210                           
   211                           ;initializer for _status
   212     07FF  3473               	retlw	115
   213     0019                     _TXREG	set	25
   214     001E                     _ADRESH	set	30
   215     001F                     _ADCON0	set	31
   216     001A                     _RCREG	set	26
   217     001D                     _CCP2CONbits	set	29
   218     001B                     _CCPR2L	set	27
   219     0006                     _PORTBbits	set	6
   220     000B                     _INTCONbits	set	11
   221     0017                     _CCP1CONbits	set	23
   222     001D                     _CCP2CON	set	29
   223     0010                     _T1CONbits	set	16
   224     0010                     _T1CON	set	16
   225     0015                     _CCPR1L	set	21
   226     0017                     _CCP1CON	set	23
   227     0012                     _T2CON	set	18
   228     0064                     _TXIF	set	100
   229     0038                     _RC0	set	56
   230     00FA                     _GO_nDONE	set	250
   231     0065                     _RCIF	set	101
   232     00C1                     _OERR	set	193
   233     0033                     _RB3	set	51
   234     0032                     _RB2	set	50
   235     0031                     _RB1	set	49
   236     0030                     _RB0	set	48
   237     00C6                     _RX9	set	198
   238     00C4                     _CREN	set	196
   239     00C7                     _SPEN	set	199
   240     0037                     _RB7	set	55
   241     0035                     _RB5	set	53
   242     0036                     _RB6	set	54
   243     0034                     _RB4	set	52
   244     0039                     _RC1	set	57
   245     003D                     _RC5	set	61
   246     0045                     _RD5	set	69
   247     0046                     _RD6	set	70
   248     009E                     _ADRESL	set	158
   249     0099                     _SPBRG	set	153
   250     009F                     _ADCON1	set	159
   251     0092                     _PR2	set	146
   252     0438                     _TRISC0	set	1080
   253     0433                     _TRISB3	set	1075
   254     0432                     _TRISB2	set	1074
   255     0431                     _TRISB1	set	1073
   256     0430                     _TRISB0	set	1072
   257     04C6                     _TX9	set	1222
   258     04C5                     _TXEN	set	1221
   259     04C4                     _SYNC	set	1220
   260     04C2                     _BRGH	set	1218
   261     043F                     _TRISC7	set	1087
   262     043E                     _TRISC6	set	1086
   263     0437                     _TRISB7	set	1079
   264     0436                     _TRISB6	set	1078
   265     0435                     _TRISB5	set	1077
   266     0434                     _TRISB4	set	1076
   267     0439                     _TRISC1	set	1081
   268     043A                     _TRISC2	set	1082
   269     0445                     _TRISD5	set	1093
   270     0446                     _TRISD6	set	1094
   271     043D                     _TRISC5	set	1085
   272     0428                     _TRISA0	set	1064
   273                           
   274                           	psect	cinit
   275     000F                     start_initialization:	
   276                           ; #config settings
   277                           
   278     000F                     __initialization:
   279                           
   280                           ; Initialize objects allocated to COMMON
   281     000F  120A  118A  27FF  120A  118A  	fcall	__pidataCOMMON	;fetch initializer
   282     0014  00FB               	movwf	__pdataCOMMON& (0+127)
   283                           
   284                           ; Clear objects allocated to BANK1
   285     0015  1383               	bcf	3,7	;select IRP bank0
   286     0016  30A0               	movlw	low __pbssBANK1
   287     0017  0084               	movwf	4
   288     0018  30D2               	movlw	low (__pbssBANK1+50)
   289     0019  120A  158A  2600  120A  118A  	fcall	clear_ram0
   290                           
   291                           ; Clear objects allocated to BANK0
   292     001E  3053               	movlw	low __pbssBANK0
   293     001F  0084               	movwf	4
   294     0020  3061               	movlw	low (__pbssBANK0+14)
   295     0021  120A  158A  2600  120A  118A  	fcall	clear_ram0
   296                           
   297                           ; Clear objects allocated to COMMON
   298     0026  01FA               	clrf	__pbssCOMMON& (0+127)
   299     0027                     end_of_initialization:	
   300                           ;End of C runtime variable initialization code
   301                           
   302     0027                     __end_of__initialization:
   303     0027  0183               	clrf	3
   304     0028  120A  118A  29FA   	ljmp	_main	;jump to C main() function
   305                           
   306                           	psect	bssCOMMON
   307     007A                     __pbssCOMMON:
   308     007A                     _temperature:
   309     007A                     	ds	1
   310                           
   311                           	psect	dataCOMMON
   312     007B                     __pdataCOMMON:
   313     007B                     _status:
   314     007B                     	ds	1
   315                           
   316                           	psect	bssBANK0
   317     0053                     __pbssBANK0:
   318     0053                     _timer:
   319     0053                     	ds	2
   320     0055                     _uv2:
   321     0055                     	ds	2
   322     0057                     _uv1:
   323     0057                     	ds	2
   324     0059                     _led_val:
   325     0059                     	ds	2
   326     005B                     _adc_val:
   327     005B                     	ds	2
   328     005D                     _humidity:
   329     005D                     	ds	1
   330     005E                     _no_forward:
   331     005E                     	ds	1
   332     005F                     _no_backward:
   333     005F                     	ds	1
   334     0060                     _get_value:
   335     0060                     	ds	1
   336                           
   337                           	psect	bssBANK1
   338     00A0                     __pbssBANK1:
   339     00A0                     _b:
   340     00A0                     	ds	50
   341                           
   342                           	psect	clrtext
   343     0E00                     clear_ram0:	
   344                           ;	Called with FSR containing the base address, and
   345                           ;	W with the last address+1
   346                           
   347     0E00  0064               	clrwdt	;clear the watchdog before getting into this loop
   348     0E01                     clrloop0:
   349     0E01  0180               	clrf	0	;clear RAM location pointed to by FSR
   350     0E02  0A84               	incf	4,f	;increment pointer
   351     0E03  0604               	xorwf	4,w	;XOR with final address
   352     0E04  1903               	btfsc	3,2	;have we reached the end yet?
   353     0E05  3400               	retlw	0	;all done for this memory range, return
   354     0E06  0604               	xorwf	4,w	;XOR again to restore value
   355     0E07  2E01               	goto	clrloop0	;do the next byte
   356                           
   357                           	psect	cstackCOMMON
   358     0070                     __pcstackCOMMON:
   359     0070                     ?_Initialize_UART:
   360     0070                     ?_Initialize_Hbridge:	
   361                           ; 1 bytes @ 0x0
   362                           
   363     0070                     ?_Ultrasonic_Init:	
   364                           ; 1 bytes @ 0x0
   365                           
   366     0070                     ?_init_timer:	
   367                           ; 1 bytes @ 0x0
   368                           
   369     0070                     ?_PWM_Init:	
   370                           ; 1 bytes @ 0x0
   371                           
   372     0070                     ?_Stop:	
   373                           ; 1 bytes @ 0x0
   374                           
   375     0070                     ?_LED_Init:	
   376                           ; 1 bytes @ 0x0
   377                           
   378     0070                     ?_closeFridge:	
   379                           ; 1 bytes @ 0x0
   380                           
   381     0070                     ?_MOVE:	
   382                           ; 1 bytes @ 0x0
   383                           
   384     0070                     ?_DHT11_Read:	
   385                           ; 1 bytes @ 0x0
   386                           
   387     0070                     ?_UART_get_char:	
   388                           ; 1 bytes @ 0x0
   389                           
   390     0070                     ?_openFridge:	
   391                           ; 1 bytes @ 0x0
   392                           
   393     0070                     ?_main:	
   394                           ; 1 bytes @ 0x0
   395                           
   396     0070                     ?_ISR:	
   397                           ; 1 bytes @ 0x0
   398                           
   399     0070                     ??_ISR:	
   400                           ; 1 bytes @ 0x0
   401                           
   402     0070                     ?_Forward:	
   403                           ; 1 bytes @ 0x0
   404                           
   405     0070                     ?_Backward:	
   406                           ; 1 bytes @ 0x0
   407                           
   408     0070                     ?_Right:	
   409                           ; 1 bytes @ 0x0
   410                           
   411     0070                     ?_Left:	
   412                           ; 1 bytes @ 0x0
   413                           
   414     0070                     ?_DHT11_Start:	
   415                           ; 1 bytes @ 0x0
   416                           
   417     0070                     ?_DHT11_Check_Response:	
   418                           ; 1 bytes @ 0x0
   419                           
   420     0070                     ?_DHT11_Read_Byte:	
   421                           ; 1 bytes @ 0x0
   422                           
   423                           
   424                           ; 1 bytes @ 0x0
   425     0070                     	ds	2
   426     0072                     ??_Initialize_UART:
   427     0072                     ??_Initialize_Hbridge:	
   428                           ; 1 bytes @ 0x2
   429                           
   430     0072                     ??_Ultrasonic_Init:	
   431                           ; 1 bytes @ 0x2
   432                           
   433     0072                     ??_init_timer:	
   434                           ; 1 bytes @ 0x2
   435                           
   436     0072                     ??_PWM_Init:	
   437                           ; 1 bytes @ 0x2
   438                           
   439     0072                     ??_Stop:	
   440                           ; 1 bytes @ 0x2
   441                           
   442     0072                     ??_LED_Init:	
   443                           ; 1 bytes @ 0x2
   444                           
   445     0072                     ??_UART_get_char:	
   446                           ; 1 bytes @ 0x2
   447                           
   448     0072                     ?_delay_ms:	
   449                           ; 1 bytes @ 0x2
   450                           
   451     0072                     ?_delay_us:	
   452                           ; 1 bytes @ 0x2
   453                           
   454     0072                     ??_Forward:	
   455                           ; 1 bytes @ 0x2
   456                           
   457     0072                     ??_Backward:	
   458                           ; 1 bytes @ 0x2
   459                           
   460     0072                     ??_Right:	
   461                           ; 1 bytes @ 0x2
   462                           
   463     0072                     ??_Left:	
   464                           ; 1 bytes @ 0x2
   465                           
   466     0072                     ?___wmul:	
   467                           ; 1 bytes @ 0x2
   468                           
   469     0072                     ?___lwdiv:	
   470                           ; 2 bytes @ 0x2
   471                           
   472     0072                     ?___lmul:	
   473                           ; 2 bytes @ 0x2
   474                           
   475     0072                     ?___xxtofl:	
   476                           ; 4 bytes @ 0x2
   477                           
   478     0072                     delay_ms@x:	
   479                           ; 4 bytes @ 0x2
   480                           
   481     0072                     delay_us@x:	
   482                           ; 2 bytes @ 0x2
   483                           
   484     0072                     ___wmul@multiplier:	
   485                           ; 2 bytes @ 0x2
   486                           
   487     0072                     ___lwdiv@divisor:	
   488                           ; 2 bytes @ 0x2
   489                           
   490     0072                     ___lmul@multiplier:	
   491                           ; 2 bytes @ 0x2
   492                           
   493     0072                     ___xxtofl@val:	
   494                           ; 4 bytes @ 0x2
   495                           
   496                           
   497                           ; 4 bytes @ 0x2
   498     0072                     	ds	2
   499     0074                     ??_delay_ms:
   500     0074                     ??_delay_us:	
   501                           ; 1 bytes @ 0x4
   502                           
   503     0074                     delay_ms@i:	
   504                           ; 1 bytes @ 0x4
   505                           
   506     0074                     delay_us@i:	
   507                           ; 2 bytes @ 0x4
   508                           
   509     0074                     ___wmul@multiplicand:	
   510                           ; 2 bytes @ 0x4
   511                           
   512     0074                     ___lwdiv@dividend:	
   513                           ; 2 bytes @ 0x4
   514                           
   515                           
   516                           ; 2 bytes @ 0x4
   517     0074                     	ds	2
   518     0076                     ??_DHT11_Check_Response:
   519     0076                     ??_DHT11_Read_Byte:	
   520                           ; 1 bytes @ 0x6
   521                           
   522     0076                     ??___wmul:	
   523                           ; 1 bytes @ 0x6
   524                           
   525     0076                     ??___lwdiv:	
   526                           ; 1 bytes @ 0x6
   527                           
   528     0076                     ??___xxtofl:	
   529                           ; 1 bytes @ 0x6
   530                           
   531     0076                     DHT11_Check_Response@response:	
   532                           ; 1 bytes @ 0x6
   533                           
   534     0076                     delay_ms@j:	
   535                           ; 1 bytes @ 0x6
   536                           
   537     0076                     ___wmul@product:	
   538                           ; 2 bytes @ 0x6
   539                           
   540     0076                     ___lwdiv@quotient:	
   541                           ; 2 bytes @ 0x6
   542                           
   543     0076                     ___lmul@multiplicand:	
   544                           ; 2 bytes @ 0x6
   545                           
   546                           
   547                           ; 4 bytes @ 0x6
   548     0076                     	ds	1
   549     0077                     DHT11_Read_Byte@data:
   550                           
   551                           ; 1 bytes @ 0x7
   552     0077                     	ds	1
   553     0078                     ??_Set_LED_DutyCycle:
   554     0078                     ??_DHT11_Start:	
   555                           ; 1 bytes @ 0x8
   556                           
   557     0078                     ??___awdiv:	
   558                           ; 1 bytes @ 0x8
   559                           
   560     0078                     DHT11_Read_Byte@i:	
   561                           ; 1 bytes @ 0x8
   562                           
   563     0078                     ___lwdiv@counter:	
   564                           ; 1 bytes @ 0x8
   565                           
   566                           
   567                           ; 1 bytes @ 0x8
   568     0078                     	ds	1
   569     0079                     ??_adc:
   570     0079                     ??_DHT11_Read:	
   571                           ; 1 bytes @ 0x9
   572                           
   573                           
   574                           ; 1 bytes @ 0x9
   575     0079                     	ds	1
   576     007A                     ??_closeFridge:
   577     007A                     ??_Read_Ultrasonic1:	
   578                           ; 1 bytes @ 0xA
   579                           
   580     007A                     ??_Read_Ultrasonic2:	
   581                           ; 1 bytes @ 0xA
   582                           
   583     007A                     ??_MOVE:	
   584                           ; 1 bytes @ 0xA
   585                           
   586     007A                     ??_openFridge:	
   587                           ; 1 bytes @ 0xA
   588                           
   589                           
   590                           	psect	cstackBANK0
   591     0020                     __pcstackBANK0:	
   592                           ; 1 bytes @ 0xA
   593                           
   594     0020                     ??___lmul:
   595     0020                     ?_adc:	
   596                           ; 1 bytes @ 0x0
   597                           
   598     0020                     ?___awdiv:	
   599                           ; 2 bytes @ 0x0
   600                           
   601     0020                     ___xxtofl@sign:	
   602                           ; 2 bytes @ 0x0
   603                           
   604     0020                     ___awdiv@divisor:	
   605                           ; 1 bytes @ 0x0
   606                           
   607                           
   608                           ; 2 bytes @ 0x0
   609     0020                     	ds	1
   610     0021                     ___xxtofl@exp:
   611     0021                     ___lmul@product:	
   612                           ; 1 bytes @ 0x1
   613                           
   614                           
   615                           ; 4 bytes @ 0x1
   616     0021                     	ds	1
   617     0022                     adc@adcval:
   618     0022                     ___awdiv@dividend:	
   619                           ; 2 bytes @ 0x2
   620                           
   621     0022                     ___xxtofl@arg:	
   622                           ; 2 bytes @ 0x2
   623                           
   624                           
   625                           ; 4 bytes @ 0x2
   626     0022                     	ds	2
   627     0024                     ___awdiv@counter:
   628                           
   629                           ; 1 bytes @ 0x4
   630     0024                     	ds	1
   631     0025                     ?___aldiv:
   632     0025                     ___awdiv@sign:	
   633                           ; 4 bytes @ 0x5
   634                           
   635     0025                     ___aldiv@divisor:	
   636                           ; 1 bytes @ 0x5
   637                           
   638                           
   639                           ; 4 bytes @ 0x5
   640     0025                     	ds	1
   641     0026                     ?___fldiv:
   642     0026                     ___awdiv@quotient:	
   643                           ; 4 bytes @ 0x6
   644                           
   645     0026                     ___fldiv@a:	
   646                           ; 2 bytes @ 0x6
   647                           
   648                           
   649                           ; 4 bytes @ 0x6
   650     0026                     	ds	2
   651     0028                     ?_Set_LED_DutyCycle:
   652     0028                     Set_LED_DutyCycle@percentage:	
   653                           ; 1 bytes @ 0x8
   654                           
   655                           
   656                           ; 2 bytes @ 0x8
   657     0028                     	ds	1
   658     0029                     ___aldiv@dividend:
   659                           
   660                           ; 4 bytes @ 0x9
   661     0029                     	ds	1
   662     002A                     Set_LED_DutyCycle@duty:
   663     002A                     ___fldiv@b:	
   664                           ; 2 bytes @ 0xA
   665                           
   666                           
   667                           ; 4 bytes @ 0xA
   668     002A                     	ds	3
   669     002D                     ??___aldiv:
   670                           
   671                           ; 1 bytes @ 0xD
   672     002D                     	ds	1
   673     002E                     ??___fldiv:
   674     002E                     ___aldiv@counter:	
   675                           ; 1 bytes @ 0xE
   676                           
   677                           
   678                           ; 1 bytes @ 0xE
   679     002E                     	ds	1
   680     002F                     ___aldiv@sign:
   681                           
   682                           ; 1 bytes @ 0xF
   683     002F                     	ds	1
   684     0030                     ___aldiv@quotient:
   685                           
   686                           ; 4 bytes @ 0x10
   687     0030                     	ds	3
   688     0033                     ___fldiv@rem:
   689                           
   690                           ; 4 bytes @ 0x13
   691     0033                     	ds	1
   692     0034                     ?_Set_PWM_Duty:
   693     0034                     Set_PWM_Duty@duty_us:	
   694                           ; 1 bytes @ 0x14
   695                           
   696                           
   697                           ; 2 bytes @ 0x14
   698     0034                     	ds	2
   699     0036                     ??_Set_PWM_Duty:
   700                           
   701                           ; 1 bytes @ 0x16
   702     0036                     	ds	1
   703     0037                     ___fldiv@sign:
   704                           
   705                           ; 1 bytes @ 0x17
   706     0037                     	ds	1
   707     0038                     ___fldiv@new_exp:
   708                           
   709                           ; 2 bytes @ 0x18
   710     0038                     	ds	1
   711     0039                     Set_PWM_Duty@duty:
   712                           
   713                           ; 2 bytes @ 0x19
   714     0039                     	ds	1
   715     003A                     ___fldiv@grs:
   716                           
   717                           ; 4 bytes @ 0x1A
   718     003A                     	ds	4
   719     003E                     ___fldiv@bexp:
   720                           
   721                           ; 1 bytes @ 0x1E
   722     003E                     	ds	1
   723     003F                     ___fldiv@aexp:
   724                           
   725                           ; 1 bytes @ 0x1F
   726     003F                     	ds	1
   727     0040                     ?___fltol:
   728     0040                     ___fltol@f1:	
   729                           ; 4 bytes @ 0x20
   730                           
   731                           
   732                           ; 4 bytes @ 0x20
   733     0040                     	ds	4
   734     0044                     ??___fltol:
   735                           
   736                           ; 1 bytes @ 0x24
   737     0044                     	ds	4
   738     0048                     ___fltol@sign1:
   739                           
   740                           ; 1 bytes @ 0x28
   741     0048                     	ds	1
   742     0049                     ___fltol@exp1:
   743                           
   744                           ; 1 bytes @ 0x29
   745     0049                     	ds	1
   746     004A                     ?_Read_Ultrasonic1:
   747     004A                     ?_Read_Ultrasonic2:	
   748                           ; 2 bytes @ 0x2A
   749                           
   750                           
   751                           ; 2 bytes @ 0x2A
   752     004A                     	ds	2
   753     004C                     Read_Ultrasonic1@time:
   754     004C                     Read_Ultrasonic2@time:	
   755                           ; 2 bytes @ 0x2C
   756                           
   757                           
   758                           ; 2 bytes @ 0x2C
   759     004C                     	ds	2
   760     004E                     Read_Ultrasonic1@timeout:
   761     004E                     Read_Ultrasonic2@timeout:	
   762                           ; 2 bytes @ 0x2E
   763                           
   764                           
   765                           ; 2 bytes @ 0x2E
   766     004E                     	ds	2
   767     0050                     ??_main:
   768                           
   769                           ; 1 bytes @ 0x30
   770     0050                     	ds	3
   771                           
   772                           	psect	maintext
   773     01FA                     __pmaintext:	
   774 ;;
   775 ;;Main: autosize = 0, tempsize = 3, incstack = 0, save=0
   776 ;;
   777 ;; *************** function _main *****************
   778 ;; Defined at:
   779 ;;		line 60 in file "main.c"
   780 ;; Parameters:    Size  Location     Type
   781 ;;		None
   782 ;; Auto vars:     Size  Location     Type
   783 ;;		None
   784 ;; Return value:  Size  Location     Type
   785 ;;                  1    wreg      void 
   786 ;; Registers used:
   787 ;;		wreg, status,2, status,0, btemp+1, pclath, cstack
   788 ;; Tracked objects:
   789 ;;		On entry : B00/0
   790 ;;		On exit  : 0/0
   791 ;;		Unchanged: 0/0
   792 ;; Data sizes:     COMMON   BANK0   BANK1   BANK3   BANK2
   793 ;;      Params:         0       0       0       0       0
   794 ;;      Locals:         0       0       0       0       0
   795 ;;      Temps:          0       3       0       0       0
   796 ;;      Totals:         0       3       0       0       0
   797 ;;Total ram usage:        3 bytes
   798 ;; Hardware stack levels required when called: 5
   799 ;; This function calls:
   800 ;;		_DHT11_Read
   801 ;;		_Initialize_Hbridge
   802 ;;		_Initialize_UART
   803 ;;		_LED_Init
   804 ;;		_MOVE
   805 ;;		_PWM_Init
   806 ;;		_Read_Ultrasonic1
   807 ;;		_Read_Ultrasonic2
   808 ;;		_Set_LED_DutyCycle
   809 ;;		_Stop
   810 ;;		_Ultrasonic_Init
   811 ;;		_adc
   812 ;;		_closeFridge
   813 ;;		_init_timer
   814 ;; This function is called by:
   815 ;;		Startup code after reset
   816 ;; This function uses a non-reentrant model
   817 ;;
   818                           
   819     01FA                     _main:	
   820                           ;psect for function _main
   821                           
   822     01FA                     l2723:	
   823                           ;incstack = 0
   824                           ; Regs used in _main: [wreg+status,2+status,0+btemp+1+pclath+cstack]
   825                           
   826                           
   827                           ;main.c: 61:     Initialize_UART();
   828     01FA  120A  158A  267D  120A  118A  	fcall	_Initialize_UART
   829     01FF                     l2725:
   830                           
   831                           ;main.c: 62:     Initialize_Hbridge();
   832     01FF  120A  158A  25D6  120A  118A  	fcall	_Initialize_Hbridge
   833     0204                     l2727:
   834                           
   835                           ;main.c: 63:     Ultrasonic_Init();
   836     0204  120A  118A  27F2  120A  118A  	fcall	_Ultrasonic_Init
   837                           
   838                           ;main.c: 64:     init_timer();
   839     0209  120A  158A  25D3  120A  118A  	fcall	_init_timer
   840     020E                     l2729:
   841                           
   842                           ;main.c: 65:     PWM_Init();
   843     020E  120A  158A  2620  120A  118A  	fcall	_PWM_Init
   844     0213                     l2731:
   845                           
   846                           ;main.c: 66:     Stop();
   847     0213  120A  158A  25F9  120A  118A  	fcall	_Stop
   848     0218                     l2733:
   849                           
   850                           ;main.c: 67:     TRISA0=1;
   851     0218  1683               	bsf	3,5	;RP0=1, select bank1
   852     0219  1303               	bcf	3,6	;RP1=0, select bank1
   853     021A  1405               	bsf	5,0	;volatile
   854                           
   855                           ;main.c: 68:     LED_Init();
   856     021B  120A  158A  263D  120A  118A  	fcall	_LED_Init
   857     0220                     l2735:
   858                           
   859                           ;main.c: 69:     TRISC5=0;
   860     0220  1683               	bsf	3,5	;RP0=1, select bank1
   861     0221  1303               	bcf	3,6	;RP1=0, select bank1
   862     0222  1287               	bcf	7,5	;volatile
   863     0223                     l2737:
   864                           
   865                           ;main.c: 70:     TRISD6 = 0;
   866     0223  1308               	bcf	8,6	;volatile
   867     0224                     l2739:
   868                           
   869                           ;main.c: 71:     TRISD5 = 0;
   870     0224  1288               	bcf	8,5	;volatile
   871     0225                     l2741:
   872                           
   873                           ;main.c: 72:     RD6=0;
   874     0225  1283               	bcf	3,5	;RP0=0, select bank0
   875     0226  1303               	bcf	3,6	;RP1=0, select bank0
   876     0227  1308               	bcf	8,6	;volatile
   877     0228                     l2743:
   878                           
   879                           ;main.c: 73:     RD5=1;
   880     0228  1688               	bsf	8,5	;volatile
   881     0229                     l2745:
   882                           
   883                           ;main.c: 74:     RC5=1;
   884     0229  1687               	bsf	7,5	;volatile
   885     022A                     l2747:
   886                           
   887                           ;main.c: 75:     closeFridge();
   888     022A  120A  158A  2608  120A  118A  	fcall	_closeFridge
   889     022F                     l2749:
   890                           
   891                           ;main.c: 78:          timer++;
   892     022F  3001               	movlw	1
   893     0230  1283               	bcf	3,5	;RP0=0, select bank0
   894     0231  1303               	bcf	3,6	;RP1=0, select bank0
   895     0232  07D3               	addwf	_timer,f
   896     0233  1803               	skipnc
   897     0234  0AD4               	incf	_timer+1,f
   898     0235  3000               	movlw	0
   899     0236  07D4               	addwf	_timer+1,f
   900     0237                     l2751:
   901                           
   902                           ;main.c: 79:         if(timer == 3){
   903     0237  3003               	movlw	3
   904     0238  0653               	xorwf	_timer,w
   905     0239  0454               	iorwf	_timer+1,w
   906     023A  1D03               	btfss	3,2
   907     023B  2A3D               	goto	u3351
   908     023C  2A3E               	goto	u3350
   909     023D                     u3351:
   910     023D  2A7A               	goto	l2769
   911     023E                     u3350:
   912     023E                     l2753:
   913                           
   914                           ;main.c: 80:             timer = 0;
   915     023E  01D3               	clrf	_timer
   916     023F  01D4               	clrf	_timer+1
   917     0240                     l2755:
   918                           
   919                           ;main.c: 81:             RD6 = !RD6;
   920     0240  3040               	movlw	64
   921     0241  0688               	xorwf	8,f
   922     0242                     l2757:
   923                           
   924                           ;main.c: 82:             RD5 = !RD5;
   925     0242  3020               	movlw	32
   926     0243  0688               	xorwf	8,f
   927     0244                     l2759:
   928                           
   929                           ;main.c: 84:         adc_val = adc();
   930     0244  120A  158A  2756  120A  118A  	fcall	_adc
   931     0249  1283               	bcf	3,5	;RP0=0, select bank0
   932     024A  1303               	bcf	3,6	;RP1=0, select bank0
   933     024B  0821               	movf	?_adc+1,w
   934     024C  00DC               	movwf	_adc_val+1
   935     024D  0820               	movf	?_adc,w
   936     024E  00DB               	movwf	_adc_val
   937     024F                     l2761:
   938                           
   939                           ;main.c: 85:         if(adc_val > 25){
   940     024F  3000               	movlw	0
   941     0250  025C               	subwf	_adc_val+1,w
   942     0251  301A               	movlw	26
   943     0252  1903               	skipnz
   944     0253  025B               	subwf	_adc_val,w
   945     0254  1C03               	skipc
   946     0255  2A57               	goto	u3361
   947     0256  2A58               	goto	u3360
   948     0257                     u3361:
   949     0257  2A61               	goto	l2765
   950     0258                     u3360:
   951     0258                     l2763:
   952                           
   953                           ;main.c: 86:            Set_LED_DutyCycle(0);
   954     0258  3000               	movlw	0
   955     0259  00A8               	movwf	Set_LED_DutyCycle@percentage
   956     025A  00A9               	movwf	Set_LED_DutyCycle@percentage+1
   957     025B  120A  118A  275F  120A  118A  	fcall	_Set_LED_DutyCycle
   958                           
   959                           ;main.c: 87:         }
   960     0260  2A7A               	goto	l2769
   961     0261                     l2765:
   962                           
   963                           ;main.c: 89:             led_val = 50-(adc_val*2);
   964     0261  085C               	movf	_adc_val+1,w
   965     0262  00D1               	movwf	??_main+1
   966     0263  085B               	movf	_adc_val,w
   967     0264  00D0               	movwf	??_main
   968     0265  1003               	clrc
   969     0266  0DD0               	rlf	??_main,f
   970     0267  0DD1               	rlf	??_main+1,f
   971     0268  3032               	movlw	50
   972     0269  00D2               	movwf	??_main+2
   973     026A  0850               	movf	??_main,w
   974     026B  0252               	subwf	??_main+2,w
   975     026C  00D9               	movwf	_led_val
   976     026D  0951               	comf	??_main+1,w
   977     026E  1803               	skipnc
   978     026F  3E01               	addlw	1
   979     0270  00DA               	movwf	_led_val+1
   980     0271                     l2767:
   981                           
   982                           ;main.c: 90:             Set_LED_DutyCycle(led_val);
   983     0271  085A               	movf	_led_val+1,w
   984     0272  00A9               	movwf	Set_LED_DutyCycle@percentage+1
   985     0273  0859               	movf	_led_val,w
   986     0274  00A8               	movwf	Set_LED_DutyCycle@percentage
   987     0275  120A  118A  275F  120A  118A  	fcall	_Set_LED_DutyCycle
   988     027A                     l2769:
   989                           
   990                           ;main.c: 94:         uv1 = Read_Ultrasonic1();
   991     027A  120A  118A  23AB  120A  118A  	fcall	_Read_Ultrasonic1
   992     027F  1283               	bcf	3,5	;RP0=0, select bank0
   993     0280  1303               	bcf	3,6	;RP1=0, select bank0
   994     0281  084B               	movf	?_Read_Ultrasonic1+1,w
   995     0282  00D8               	movwf	_uv1+1
   996     0283  084A               	movf	?_Read_Ultrasonic1,w
   997     0284  00D7               	movwf	_uv1
   998     0285                     l2771:
   999                           
  1000                           ;main.c: 95:         uv2 = Read_Ultrasonic2();
  1001     0285  120A  118A  2451  120A  118A  	fcall	_Read_Ultrasonic2
  1002     028A  1283               	bcf	3,5	;RP0=0, select bank0
  1003     028B  1303               	bcf	3,6	;RP1=0, select bank0
  1004     028C  084B               	movf	?_Read_Ultrasonic2+1,w
  1005     028D  00D6               	movwf	_uv2+1
  1006     028E  084A               	movf	?_Read_Ultrasonic2,w
  1007     028F  00D5               	movwf	_uv2
  1008     0290                     l2773:
  1009                           
  1010                           ;main.c: 96:         if(uv1<7 && uv1>0){
  1011     0290  3000               	movlw	0
  1012     0291  0258               	subwf	_uv1+1,w
  1013     0292  3007               	movlw	7
  1014     0293  1903               	skipnz
  1015     0294  0257               	subwf	_uv1,w
  1016     0295  1803               	skipnc
  1017     0296  2A98               	goto	u3371
  1018     0297  2A99               	goto	u3370
  1019     0298                     u3371:
  1020     0298  2AAF               	goto	l2783
  1021     0299                     u3370:
  1022     0299                     l2775:
  1023     0299  0857               	movf	_uv1,w
  1024     029A  0458               	iorwf	_uv1+1,w
  1025     029B  1903               	btfsc	3,2
  1026     029C  2A9E               	goto	u3381
  1027     029D  2A9F               	goto	u3380
  1028     029E                     u3381:
  1029     029E  2AAF               	goto	l2783
  1030     029F                     u3380:
  1031     029F                     l2777:
  1032                           
  1033                           ;main.c: 97:             if(status == 'f'){
  1034     029F  3066               	movlw	102
  1035     02A0  067B               	xorwf	_status,w
  1036     02A1  1D03               	btfss	3,2
  1037     02A2  2AA4               	goto	u3391
  1038     02A3  2AA5               	goto	u3390
  1039     02A4                     u3391:
  1040     02A4  2AAA               	goto	l2781
  1041     02A5                     u3390:
  1042     02A5                     l2779:
  1043                           
  1044                           ;main.c: 98:                 Stop();
  1045     02A5  120A  158A  25F9  120A  118A  	fcall	_Stop
  1046     02AA                     l2781:
  1047                           
  1048                           ;main.c: 100:             no_forward = 1;
  1049     02AA  1283               	bcf	3,5	;RP0=0, select bank0
  1050     02AB  1303               	bcf	3,6	;RP1=0, select bank0
  1051     02AC  01DE               	clrf	_no_forward
  1052     02AD  0ADE               	incf	_no_forward,f
  1053                           
  1054                           ;main.c: 101:         }
  1055     02AE  2AB0               	goto	l2785
  1056     02AF                     l2783:
  1057                           
  1058                           ;main.c: 103:             no_forward = 0;
  1059     02AF  01DE               	clrf	_no_forward
  1060     02B0                     l2785:
  1061                           
  1062                           ;main.c: 105:         if(uv2<7 && uv2>0){
  1063     02B0  3000               	movlw	0
  1064     02B1  0256               	subwf	_uv2+1,w
  1065     02B2  3007               	movlw	7
  1066     02B3  1903               	skipnz
  1067     02B4  0255               	subwf	_uv2,w
  1068     02B5  1803               	skipnc
  1069     02B6  2AB8               	goto	u3401
  1070     02B7  2AB9               	goto	u3400
  1071     02B8                     u3401:
  1072     02B8  2ACF               	goto	l2795
  1073     02B9                     u3400:
  1074     02B9                     l2787:
  1075     02B9  0855               	movf	_uv2,w
  1076     02BA  0456               	iorwf	_uv2+1,w
  1077     02BB  1903               	btfsc	3,2
  1078     02BC  2ABE               	goto	u3411
  1079     02BD  2ABF               	goto	u3410
  1080     02BE                     u3411:
  1081     02BE  2ACF               	goto	l2795
  1082     02BF                     u3410:
  1083     02BF                     l2789:
  1084                           
  1085                           ;main.c: 106:             if(status == 'b'){
  1086     02BF  3062               	movlw	98
  1087     02C0  067B               	xorwf	_status,w
  1088     02C1  1D03               	btfss	3,2
  1089     02C2  2AC4               	goto	u3421
  1090     02C3  2AC5               	goto	u3420
  1091     02C4                     u3421:
  1092     02C4  2ACA               	goto	l2793
  1093     02C5                     u3420:
  1094     02C5                     l2791:
  1095                           
  1096                           ;main.c: 107:                 Stop();
  1097     02C5  120A  158A  25F9  120A  118A  	fcall	_Stop
  1098     02CA                     l2793:
  1099                           
  1100                           ;main.c: 109:             no_backward = 1;
  1101     02CA  1283               	bcf	3,5	;RP0=0, select bank0
  1102     02CB  1303               	bcf	3,6	;RP1=0, select bank0
  1103     02CC  01DF               	clrf	_no_backward
  1104     02CD  0ADF               	incf	_no_backward,f
  1105                           
  1106                           ;main.c: 110:         }
  1107     02CE  2AD0               	goto	l2797
  1108     02CF                     l2795:
  1109                           
  1110                           ;main.c: 112:             no_backward = 0;
  1111     02CF  01DF               	clrf	_no_backward
  1112     02D0                     l2797:
  1113                           
  1114                           ;main.c: 114:         MOVE();
  1115     02D0  120A  118A  2680  120A  118A  	fcall	_MOVE
  1116     02D5                     l2799:
  1117                           
  1118                           ;main.c: 115:         DHT11_Read();
  1119     02D5  120A  158A  2729  120A  118A  	fcall	_DHT11_Read
  1120     02DA                     l2801:
  1121                           
  1122                           ;main.c: 116:         if(temperature > 25){
  1123     02DA  301A               	movlw	26
  1124     02DB  027A               	subwf	_temperature,w
  1125     02DC  1C03               	skipc
  1126     02DD  2ADF               	goto	u3431
  1127     02DE  2AE0               	goto	u3430
  1128     02DF                     u3431:
  1129     02DF  2AE4               	goto	l2805
  1130     02E0                     u3430:
  1131     02E0                     l2803:
  1132                           
  1133                           ;main.c: 117:             RC5 = 0;
  1134     02E0  1283               	bcf	3,5	;RP0=0, select bank0
  1135     02E1  1303               	bcf	3,6	;RP1=0, select bank0
  1136     02E2  1287               	bcf	7,5	;volatile
  1137                           
  1138                           ;main.c: 118:         }
  1139     02E3  2A2F               	goto	l2749
  1140     02E4                     l2805:
  1141     02E4  301A               	movlw	26
  1142     02E5  027A               	subwf	_temperature,w
  1143     02E6  1803               	skipnc
  1144     02E7  2AE9               	goto	u3441
  1145     02E8  2AEA               	goto	u3440
  1146     02E9                     u3441:
  1147     02E9  2A2F               	goto	l2749
  1148     02EA                     u3440:
  1149     02EA                     l2807:
  1150                           
  1151                           ;main.c: 120:             RC5 = 1;
  1152     02EA  1283               	bcf	3,5	;RP0=0, select bank0
  1153     02EB  1303               	bcf	3,6	;RP1=0, select bank0
  1154     02EC  1687               	bsf	7,5	;volatile
  1155     02ED  2A2F               	goto	l2749
  1156     02EE  120A  118A  280C   	ljmp	start
  1157     02F1                     __end_of_main:
  1158                           
  1159                           	psect	text1
  1160     0DD3                     __ptext1:	
  1161 ;; *************** function _init_timer *****************
  1162 ;; Defined at:
  1163 ;;		line 175 in file "main.c"
  1164 ;; Parameters:    Size  Location     Type
  1165 ;;		None
  1166 ;; Auto vars:     Size  Location     Type
  1167 ;;		None
  1168 ;; Return value:  Size  Location     Type
  1169 ;;                  1    wreg      void 
  1170 ;; Registers used:
  1171 ;;		None
  1172 ;; Tracked objects:
  1173 ;;		On entry : 0/0
  1174 ;;		On exit  : 0/0
  1175 ;;		Unchanged: 0/0
  1176 ;; Data sizes:     COMMON   BANK0   BANK1   BANK3   BANK2
  1177 ;;      Params:         0       0       0       0       0
  1178 ;;      Locals:         0       0       0       0       0
  1179 ;;      Temps:          0       0       0       0       0
  1180 ;;      Totals:         0       0       0       0       0
  1181 ;;Total ram usage:        0 bytes
  1182 ;; Hardware stack levels used: 1
  1183 ;; Hardware stack levels required when called: 1
  1184 ;; This function calls:
  1185 ;;		Nothing
  1186 ;; This function is called by:
  1187 ;;		_main
  1188 ;; This function uses a non-reentrant model
  1189 ;;
  1190                           
  1191     0DD3                     _init_timer:	
  1192                           ;psect for function _init_timer
  1193                           
  1194     0DD3                     l2167:	
  1195                           ;incstack = 0
  1196                           ; Regs used in _init_timer: []
  1197                           
  1198                           
  1199                           ;main.c: 176:     INTCONbits.GIE = 1;
  1200     0DD3  178B               	bsf	11,7	;volatile
  1201                           
  1202                           ;main.c: 177:     INTCONbits.PEIE = 1;
  1203     0DD4  170B               	bsf	11,6	;volatile
  1204     0DD5                     l224:
  1205     0DD5  0008               	return
  1206     0DD6                     __end_of_init_timer:
  1207                           
  1208                           	psect	text2
  1209     0F56                     __ptext2:	
  1210 ;; *************** function _adc *****************
  1211 ;; Defined at:
  1212 ;;		line 346 in file "main.c"
  1213 ;; Parameters:    Size  Location     Type
  1214 ;;		None
  1215 ;; Auto vars:     Size  Location     Type
  1216 ;;  adcval          2    2[BANK0 ] unsigned int 
  1217 ;; Return value:  Size  Location     Type
  1218 ;;                  2    0[BANK0 ] unsigned int 
  1219 ;; Registers used:
  1220 ;;		wreg, status,2, status,0, btemp+1, pclath, cstack
  1221 ;; Tracked objects:
  1222 ;;		On entry : 0/0
  1223 ;;		On exit  : 0/0
  1224 ;;		Unchanged: 0/0
  1225 ;; Data sizes:     COMMON   BANK0   BANK1   BANK3   BANK2
  1226 ;;      Params:         0       2       0       0       0
  1227 ;;      Locals:         0       2       0       0       0
  1228 ;;      Temps:          0       0       0       0       0
  1229 ;;      Totals:         0       4       0       0       0
  1230 ;;Total ram usage:        4 bytes
  1231 ;; Hardware stack levels used: 1
  1232 ;; Hardware stack levels required when called: 2
  1233 ;; This function calls:
  1234 ;;		___lwdiv
  1235 ;; This function is called by:
  1236 ;;		_main
  1237 ;; This function uses a non-reentrant model
  1238 ;;
  1239                           
  1240     0F56                     _adc:	
  1241                           ;psect for function _adc
  1242                           
  1243     0F56                     l2573:	
  1244                           ;incstack = 0
  1245                           ; Regs used in _adc: [wreg+status,2+status,0+btemp+1+pclath+cstack]
  1246                           
  1247                           
  1248                           ;main.c: 348:     unsigned int adcval;;main.c: 349:     ADCON1=0xc0;
  1249     0F56  30C0               	movlw	192
  1250     0F57  1683               	bsf	3,5	;RP0=1, select bank1
  1251     0F58  1303               	bcf	3,6	;RP1=0, select bank1
  1252     0F59  009F               	movwf	31	;volatile
  1253                           
  1254                           ;main.c: 350:     ADCON0=0x85;
  1255     0F5A  3085               	movlw	133
  1256     0F5B  1283               	bcf	3,5	;RP0=0, select bank0
  1257     0F5C  1303               	bcf	3,6	;RP1=0, select bank0
  1258     0F5D  009F               	movwf	31	;volatile
  1259     0F5E                     l305:	
  1260                           ;main.c: 351:     while(GO_nDONE);
  1261                           
  1262     0F5E  191F               	btfsc	31,2	;volatile
  1263     0F5F  2F61               	goto	u3121
  1264     0F60  2F62               	goto	u3120
  1265     0F61                     u3121:
  1266     0F61  2F5E               	goto	l305
  1267     0F62                     u3120:
  1268     0F62                     l2575:
  1269                           
  1270                           ;main.c: 352:     adcval=((ADRESH<<8)|(ADRESL));
  1271     0F62  081E               	movf	30,w	;volatile
  1272     0F63  00A3               	movwf	adc@adcval+1
  1273     0F64  1683               	bsf	3,5	;RP0=1, select bank1
  1274     0F65  1303               	bcf	3,6	;RP1=0, select bank1
  1275     0F66  081E               	movf	30,w	;volatile
  1276     0F67  1283               	bcf	3,5	;RP0=0, select bank0
  1277     0F68  1303               	bcf	3,6	;RP1=0, select bank0
  1278     0F69  00A2               	movwf	adc@adcval
  1279     0F6A                     l2577:
  1280                           
  1281                           ;main.c: 353:     adcval=(adcval/3)-1;
  1282     0F6A  3003               	movlw	3
  1283     0F6B  00F2               	movwf	___lwdiv@divisor
  1284     0F6C  3000               	movlw	0
  1285     0F6D  00F3               	movwf	___lwdiv@divisor+1
  1286     0F6E  0823               	movf	adc@adcval+1,w
  1287     0F6F  00F5               	movwf	___lwdiv@dividend+1
  1288     0F70  0822               	movf	adc@adcval,w
  1289     0F71  00F4               	movwf	___lwdiv@dividend
  1290     0F72  120A  158A  27BC  120A  158A  	fcall	___lwdiv
  1291     0F77  0872               	movf	?___lwdiv,w
  1292     0F78  3EFF               	addlw	255
  1293     0F79  1283               	bcf	3,5	;RP0=0, select bank0
  1294     0F7A  1303               	bcf	3,6	;RP1=0, select bank0
  1295     0F7B  00A2               	movwf	adc@adcval
  1296     0F7C  0873               	movf	?___lwdiv+1,w
  1297     0F7D  1803               	skipnc
  1298     0F7E  3E01               	addlw	1
  1299     0F7F  3EFF               	addlw	255
  1300     0F80  00A3               	movwf	adc@adcval+1
  1301     0F81                     l2579:
  1302                           
  1303                           ;main.c: 354:     return adcval;
  1304     0F81  0823               	movf	adc@adcval+1,w
  1305     0F82  00A1               	movwf	?_adc+1
  1306     0F83  0822               	movf	adc@adcval,w
  1307     0F84  00A0               	movwf	?_adc
  1308     0F85                     l308:
  1309     0F85  0008               	return
  1310     0F86                     __end_of_adc:
  1311                           
  1312                           	psect	text3
  1313     0FBC                     __ptext3:	
  1314 ;; *************** function ___lwdiv *****************
  1315 ;; Defined at:
  1316 ;;		line 5 in file "C:\Program Files\Microchip\xc8\v2.46\pic\sources\c99\common\lwdiv.c"
  1317 ;; Parameters:    Size  Location     Type
  1318 ;;  divisor         2    2[COMMON] unsigned int 
  1319 ;;  dividend        2    4[COMMON] unsigned int 
  1320 ;; Auto vars:     Size  Location     Type
  1321 ;;  quotient        2    6[COMMON] unsigned int 
  1322 ;;  counter         1    8[COMMON] unsigned char 
  1323 ;; Return value:  Size  Location     Type
  1324 ;;                  2    2[COMMON] unsigned int 
  1325 ;; Registers used:
  1326 ;;		wreg, status,2, status,0, btemp+1
  1327 ;; Tracked objects:
  1328 ;;		On entry : 0/0
  1329 ;;		On exit  : 0/0
  1330 ;;		Unchanged: 0/0
  1331 ;; Data sizes:     COMMON   BANK0   BANK1   BANK3   BANK2
  1332 ;;      Params:         4       0       0       0       0
  1333 ;;      Locals:         3       0       0       0       0
  1334 ;;      Temps:          0       0       0       0       0
  1335 ;;      Totals:         7       0       0       0       0
  1336 ;;Total ram usage:        7 bytes
  1337 ;; Hardware stack levels used: 1
  1338 ;; Hardware stack levels required when called: 1
  1339 ;; This function calls:
  1340 ;;		Nothing
  1341 ;; This function is called by:
  1342 ;;		_adc
  1343 ;; This function uses a non-reentrant model
  1344 ;;
  1345                           
  1346     0FBC                     ___lwdiv:	
  1347                           ;psect for function ___lwdiv
  1348                           
  1349     0FBC                     l1913:	
  1350                           ;incstack = 0
  1351                           ; Regs used in ___lwdiv: [wreg+status,2+status,0+btemp+1]
  1352                           
  1353     0FBC  01F6               	clrf	___lwdiv@quotient
  1354     0FBD  01F7               	clrf	___lwdiv@quotient+1
  1355     0FBE                     l1915:
  1356     0FBE  0872               	movf	___lwdiv@divisor,w
  1357     0FBF  0473               	iorwf	___lwdiv@divisor+1,w
  1358     0FC0  1903               	btfsc	3,2
  1359     0FC1  2FC3               	goto	u1931
  1360     0FC2  2FC4               	goto	u1930
  1361     0FC3                     u1931:
  1362     0FC3  2FFB               	goto	l1935
  1363     0FC4                     u1930:
  1364     0FC4                     l1917:
  1365     0FC4  01F8               	clrf	___lwdiv@counter
  1366     0FC5  0AF8               	incf	___lwdiv@counter,f
  1367     0FC6  2FD2               	goto	l1923
  1368     0FC7                     l1919:
  1369     0FC7  3001               	movlw	1
  1370     0FC8                     u1945:
  1371     0FC8  1003               	clrc
  1372     0FC9  0DF2               	rlf	___lwdiv@divisor,f
  1373     0FCA  0DF3               	rlf	___lwdiv@divisor+1,f
  1374     0FCB  3EFF               	addlw	-1
  1375     0FCC  1D03               	skipz
  1376     0FCD  2FC8               	goto	u1945
  1377     0FCE                     l1921:
  1378     0FCE  3001               	movlw	1
  1379     0FCF  00FF               	movwf	btemp+1
  1380     0FD0  087F               	movf	btemp+1,w
  1381     0FD1  07F8               	addwf	___lwdiv@counter,f
  1382     0FD2                     l1923:
  1383     0FD2  1FF3               	btfss	___lwdiv@divisor+1,7
  1384     0FD3  2FD5               	goto	u1951
  1385     0FD4  2FD6               	goto	u1950
  1386     0FD5                     u1951:
  1387     0FD5  2FC7               	goto	l1919
  1388     0FD6                     u1950:
  1389     0FD6                     l1925:
  1390     0FD6  3001               	movlw	1
  1391     0FD7                     u1965:
  1392     0FD7  1003               	clrc
  1393     0FD8  0DF6               	rlf	___lwdiv@quotient,f
  1394     0FD9  0DF7               	rlf	___lwdiv@quotient+1,f
  1395     0FDA  3EFF               	addlw	-1
  1396     0FDB  1D03               	skipz
  1397     0FDC  2FD7               	goto	u1965
  1398     0FDD  0873               	movf	___lwdiv@divisor+1,w
  1399     0FDE  0275               	subwf	___lwdiv@dividend+1,w
  1400     0FDF  1D03               	skipz
  1401     0FE0  2FE3               	goto	u1975
  1402     0FE1  0872               	movf	___lwdiv@divisor,w
  1403     0FE2  0274               	subwf	___lwdiv@dividend,w
  1404     0FE3                     u1975:
  1405     0FE3  1C03               	skipc
  1406     0FE4  2FE6               	goto	u1971
  1407     0FE5  2FE7               	goto	u1970
  1408     0FE6                     u1971:
  1409     0FE6  2FEE               	goto	l1931
  1410     0FE7                     u1970:
  1411     0FE7                     l1927:
  1412     0FE7  0872               	movf	___lwdiv@divisor,w
  1413     0FE8  02F4               	subwf	___lwdiv@dividend,f
  1414     0FE9  0873               	movf	___lwdiv@divisor+1,w
  1415     0FEA  1C03               	skipc
  1416     0FEB  03F5               	decf	___lwdiv@dividend+1,f
  1417     0FEC  02F5               	subwf	___lwdiv@dividend+1,f
  1418     0FED                     l1929:
  1419     0FED  1476               	bsf	___lwdiv@quotient,0
  1420     0FEE                     l1931:
  1421     0FEE  3001               	movlw	1
  1422     0FEF                     u1985:
  1423     0FEF  1003               	clrc
  1424     0FF0  0CF3               	rrf	___lwdiv@divisor+1,f
  1425     0FF1  0CF2               	rrf	___lwdiv@divisor,f
  1426     0FF2  3EFF               	addlw	-1
  1427     0FF3  1D03               	skipz
  1428     0FF4  2FEF               	goto	u1985
  1429     0FF5                     l1933:
  1430     0FF5  3001               	movlw	1
  1431     0FF6  02F8               	subwf	___lwdiv@counter,f
  1432     0FF7  1D03               	btfss	3,2
  1433     0FF8  2FFA               	goto	u1991
  1434     0FF9  2FFB               	goto	u1990
  1435     0FFA                     u1991:
  1436     0FFA  2FD6               	goto	l1925
  1437     0FFB                     u1990:
  1438     0FFB                     l1935:
  1439     0FFB  0877               	movf	___lwdiv@quotient+1,w
  1440     0FFC  00F3               	movwf	?___lwdiv+1
  1441     0FFD  0876               	movf	___lwdiv@quotient,w
  1442     0FFE  00F2               	movwf	?___lwdiv
  1443     0FFF                     l719:
  1444     0FFF  0008               	return
  1445     1000                     __end_of___lwdiv:
  1446                           
  1447                           	psect	text4
  1448     07F2                     __ptext4:	
  1449 ;; *************** function _Ultrasonic_Init *****************
  1450 ;; Defined at:
  1451 ;;		line 202 in file "main.c"
  1452 ;; Parameters:    Size  Location     Type
  1453 ;;		None
  1454 ;; Auto vars:     Size  Location     Type
  1455 ;;		None
  1456 ;; Return value:  Size  Location     Type
  1457 ;;                  1    wreg      void 
  1458 ;; Registers used:
  1459 ;;		wreg
  1460 ;; Tracked objects:
  1461 ;;		On entry : 0/0
  1462 ;;		On exit  : 0/0
  1463 ;;		Unchanged: 0/0
  1464 ;; Data sizes:     COMMON   BANK0   BANK1   BANK3   BANK2
  1465 ;;      Params:         0       0       0       0       0
  1466 ;;      Locals:         0       0       0       0       0
  1467 ;;      Temps:          0       0       0       0       0
  1468 ;;      Totals:         0       0       0       0       0
  1469 ;;Total ram usage:        0 bytes
  1470 ;; Hardware stack levels used: 1
  1471 ;; Hardware stack levels required when called: 1
  1472 ;; This function calls:
  1473 ;;		Nothing
  1474 ;; This function is called by:
  1475 ;;		_main
  1476 ;; This function uses a non-reentrant model
  1477 ;;
  1478                           
  1479     07F2                     _Ultrasonic_Init:	
  1480                           ;psect for function _Ultrasonic_Init
  1481                           
  1482     07F2                     l2153:	
  1483                           ;incstack = 0
  1484                           ; Regs used in _Ultrasonic_Init: [wreg]
  1485                           
  1486                           
  1487                           ;main.c: 203:     ADCON1 = 0x06;
  1488     07F2  3006               	movlw	6
  1489     07F3  1683               	bsf	3,5	;RP0=1, select bank1
  1490     07F4  1303               	bcf	3,6	;RP1=0, select bank1
  1491     07F5  009F               	movwf	31	;volatile
  1492     07F6                     l2155:
  1493                           
  1494                           ;main.c: 204:     TRISB4 = 0;
  1495     07F6  1206               	bcf	6,4	;volatile
  1496     07F7                     l2157:
  1497                           
  1498                           ;main.c: 205:     TRISB5 = 1;
  1499     07F7  1686               	bsf	6,5	;volatile
  1500     07F8                     l2159:
  1501                           
  1502                           ;main.c: 206:     TRISB6 = 0;
  1503     07F8  1306               	bcf	6,6	;volatile
  1504     07F9                     l2161:
  1505                           
  1506                           ;main.c: 207:     TRISB7 = 1;
  1507     07F9  1786               	bsf	6,7	;volatile
  1508     07FA                     l2163:
  1509                           
  1510                           ;main.c: 209:     RB4 = 0;
  1511     07FA  1283               	bcf	3,5	;RP0=0, select bank0
  1512     07FB  1303               	bcf	3,6	;RP1=0, select bank0
  1513     07FC  1206               	bcf	6,4	;volatile
  1514     07FD                     l2165:
  1515                           
  1516                           ;main.c: 210:     RB6 = 0;
  1517     07FD  1306               	bcf	6,6	;volatile
  1518     07FE                     l237:
  1519     07FE  0008               	return
  1520     07FF                     __end_of_Ultrasonic_Init:
  1521                           
  1522                           	psect	text5
  1523     075F                     __ptext5:	
  1524 ;; *************** function _Set_LED_DutyCycle *****************
  1525 ;; Defined at:
  1526 ;;		line 183 in file "main.c"
  1527 ;; Parameters:    Size  Location     Type
  1528 ;;  percentage      2    8[BANK0 ] int 
  1529 ;; Auto vars:     Size  Location     Type
  1530 ;;  duty            2   10[BANK0 ] unsigned int 
  1531 ;; Return value:  Size  Location     Type
  1532 ;;                  1    wreg      void 
  1533 ;; Registers used:
  1534 ;;		wreg, status,2, status,0, btemp+1, pclath, cstack
  1535 ;; Tracked objects:
  1536 ;;		On entry : 0/0
  1537 ;;		On exit  : 0/0
  1538 ;;		Unchanged: 0/0
  1539 ;; Data sizes:     COMMON   BANK0   BANK1   BANK3   BANK2
  1540 ;;      Params:         0       2       0       0       0
  1541 ;;      Locals:         0       2       0       0       0
  1542 ;;      Temps:          1       0       0       0       0
  1543 ;;      Totals:         1       4       0       0       0
  1544 ;;Total ram usage:        5 bytes
  1545 ;; Hardware stack levels used: 1
  1546 ;; Hardware stack levels required when called: 2
  1547 ;; This function calls:
  1548 ;;		___awdiv
  1549 ;;		___wmul
  1550 ;; This function is called by:
  1551 ;;		_main
  1552 ;; This function uses a non-reentrant model
  1553 ;;
  1554                           
  1555     075F                     _Set_LED_DutyCycle:	
  1556                           ;psect for function _Set_LED_DutyCycle
  1557                           
  1558     075F                     l2583:	
  1559                           ;incstack = 0
  1560                           ; Regs used in _Set_LED_DutyCycle: [wreg+status,2+status,0+btemp+1+pclath+cstack]
  1561                           
  1562                           
  1563                           ;main.c: 184:     if (percentage > 100) {
  1564     075F  1283               	bcf	3,5	;RP0=0, select bank0
  1565     0760  1303               	bcf	3,6	;RP1=0, select bank0
  1566     0761  0829               	movf	Set_LED_DutyCycle@percentage+1,w
  1567     0762  3A80               	xorlw	128
  1568     0763  00FF               	movwf	btemp+1
  1569     0764  3080               	movlw	128
  1570     0765  027F               	subwf	btemp+1,w
  1571     0766  1D03               	skipz
  1572     0767  2F6A               	goto	u3135
  1573     0768  3065               	movlw	101
  1574     0769  0228               	subwf	Set_LED_DutyCycle@percentage,w
  1575     076A                     u3135:
  1576     076A  1C03               	skipc
  1577     076B  2F6D               	goto	u3131
  1578     076C  2F6E               	goto	u3130
  1579     076D                     u3131:
  1580     076D  2F74               	goto	l2587
  1581     076E                     u3130:
  1582     076E                     l2585:
  1583                           
  1584                           ;main.c: 185:         percentage = 100;
  1585     076E  3064               	movlw	100
  1586     076F  1283               	bcf	3,5	;RP0=0, select bank0
  1587     0770  1303               	bcf	3,6	;RP1=0, select bank0
  1588     0771  00A8               	movwf	Set_LED_DutyCycle@percentage
  1589     0772  3000               	movlw	0
  1590     0773  00A9               	movwf	Set_LED_DutyCycle@percentage+1
  1591     0774                     l2587:
  1592                           
  1593                           ;main.c: 187:     if (percentage < 0) {
  1594     0774  1283               	bcf	3,5	;RP0=0, select bank0
  1595     0775  1303               	bcf	3,6	;RP1=0, select bank0
  1596     0776  1FA9               	btfss	Set_LED_DutyCycle@percentage+1,7
  1597     0777  2F79               	goto	u3141
  1598     0778  2F7A               	goto	u3140
  1599     0779                     u3141:
  1600     0779  2F7C               	goto	l2595
  1601     077A                     u3140:
  1602     077A                     l2589:
  1603     077A                     l2591:
  1604                           
  1605                           ;main.c: 189:         RC1=0;
  1606     077A  1087               	bcf	7,1	;volatile
  1607     077B  2FA9               	goto	l234
  1608     077C                     l2595:
  1609                           
  1610                           ;main.c: 196:     unsigned int duty = (percentage * 255) / 100;
  1611     077C  3064               	movlw	100
  1612     077D  00A0               	movwf	___awdiv@divisor
  1613     077E  3000               	movlw	0
  1614     077F  00A1               	movwf	___awdiv@divisor+1
  1615     0780  0829               	movf	Set_LED_DutyCycle@percentage+1,w
  1616     0781  00F3               	movwf	___wmul@multiplier+1
  1617     0782  0828               	movf	Set_LED_DutyCycle@percentage,w
  1618     0783  00F2               	movwf	___wmul@multiplier
  1619     0784  30FF               	movlw	255
  1620     0785  00F4               	movwf	___wmul@multiplicand
  1621     0786  3000               	movlw	0
  1622     0787  00F5               	movwf	___wmul@multiplicand+1
  1623     0788  120A  158A  26B4  120A  118A  	fcall	___wmul
  1624     078D  0873               	movf	?___wmul+1,w
  1625     078E  1283               	bcf	3,5	;RP0=0, select bank0
  1626     078F  1303               	bcf	3,6	;RP1=0, select bank0
  1627     0790  00A3               	movwf	___awdiv@dividend+1
  1628     0791  0872               	movf	?___wmul,w
  1629     0792  00A2               	movwf	___awdiv@dividend
  1630     0793  120A  118A  26F6  120A  118A  	fcall	___awdiv
  1631     0798  1283               	bcf	3,5	;RP0=0, select bank0
  1632     0799  1303               	bcf	3,6	;RP1=0, select bank0
  1633     079A  0821               	movf	?___awdiv+1,w
  1634     079B  00AB               	movwf	Set_LED_DutyCycle@duty+1
  1635     079C  0820               	movf	?___awdiv,w
  1636     079D  00AA               	movwf	Set_LED_DutyCycle@duty
  1637     079E                     l2597:
  1638                           
  1639                           ;main.c: 198:     CCPR2L = duty;
  1640     079E  082A               	movf	Set_LED_DutyCycle@duty,w
  1641     079F  009B               	movwf	27	;volatile
  1642     07A0                     l2599:
  1643                           
  1644                           ;main.c: 199:     CCP2CONbits.CCP2M1 = duty & 0x03;
  1645     07A0  082A               	movf	Set_LED_DutyCycle@duty,w
  1646     07A1  3903               	andlw	3
  1647     07A2  00F8               	movwf	??_Set_LED_DutyCycle
  1648     07A3  0DF8               	rlf	??_Set_LED_DutyCycle,f
  1649     07A4  081D               	movf	29,w	;volatile
  1650     07A5  0678               	xorwf	??_Set_LED_DutyCycle,w
  1651     07A6  39FD               	andlw	-3
  1652     07A7  0678               	xorwf	??_Set_LED_DutyCycle,w
  1653     07A8  009D               	movwf	29	;volatile
  1654     07A9                     l234:
  1655     07A9  0008               	return
  1656     07AA                     __end_of_Set_LED_DutyCycle:
  1657                           
  1658                           	psect	text6
  1659     06F6                     __ptext6:	
  1660 ;; *************** function ___awdiv *****************
  1661 ;; Defined at:
  1662 ;;		line 5 in file "C:\Program Files\Microchip\xc8\v2.46\pic\sources\c99\common\awdiv.c"
  1663 ;; Parameters:    Size  Location     Type
  1664 ;;  divisor         2    0[BANK0 ] int 
  1665 ;;  dividend        2    2[BANK0 ] int 
  1666 ;; Auto vars:     Size  Location     Type
  1667 ;;  quotient        2    6[BANK0 ] int 
  1668 ;;  sign            1    5[BANK0 ] unsigned char 
  1669 ;;  counter         1    4[BANK0 ] unsigned char 
  1670 ;; Return value:  Size  Location     Type
  1671 ;;                  2    0[BANK0 ] int 
  1672 ;; Registers used:
  1673 ;;		wreg, status,2, status,0, btemp+1
  1674 ;; Tracked objects:
  1675 ;;		On entry : 0/0
  1676 ;;		On exit  : 0/0
  1677 ;;		Unchanged: 0/0
  1678 ;; Data sizes:     COMMON   BANK0   BANK1   BANK3   BANK2
  1679 ;;      Params:         0       4       0       0       0
  1680 ;;      Locals:         0       4       0       0       0
  1681 ;;      Temps:          0       0       0       0       0
  1682 ;;      Totals:         0       8       0       0       0
  1683 ;;Total ram usage:        8 bytes
  1684 ;; Hardware stack levels used: 1
  1685 ;; Hardware stack levels required when called: 1
  1686 ;; This function calls:
  1687 ;;		Nothing
  1688 ;; This function is called by:
  1689 ;;		_Set_LED_DutyCycle
  1690 ;; This function uses a non-reentrant model
  1691 ;;
  1692                           
  1693     06F6                     ___awdiv:	
  1694                           ;psect for function ___awdiv
  1695                           
  1696     06F6                     l2491:	
  1697                           ;incstack = 0
  1698                           ; Regs used in ___awdiv: [wreg+status,2+status,0+btemp+1]
  1699                           
  1700     06F6  1283               	bcf	3,5	;RP0=0, select bank0
  1701     06F7  1303               	bcf	3,6	;RP1=0, select bank0
  1702     06F8  01A5               	clrf	___awdiv@sign
  1703     06F9                     l2493:
  1704     06F9  1FA1               	btfss	___awdiv@divisor+1,7
  1705     06FA  2EFC               	goto	u2921
  1706     06FB  2EFD               	goto	u2920
  1707     06FC                     u2921:
  1708     06FC  2F04               	goto	l2499
  1709     06FD                     u2920:
  1710     06FD                     l2495:
  1711     06FD  09A0               	comf	___awdiv@divisor,f
  1712     06FE  09A1               	comf	___awdiv@divisor+1,f
  1713     06FF  0AA0               	incf	___awdiv@divisor,f
  1714     0700  1903               	skipnz
  1715     0701  0AA1               	incf	___awdiv@divisor+1,f
  1716     0702                     l2497:
  1717     0702  01A5               	clrf	___awdiv@sign
  1718     0703  0AA5               	incf	___awdiv@sign,f
  1719     0704                     l2499:
  1720     0704  1FA3               	btfss	___awdiv@dividend+1,7
  1721     0705  2F07               	goto	u2931
  1722     0706  2F08               	goto	u2930
  1723     0707                     u2931:
  1724     0707  2F11               	goto	l2505
  1725     0708                     u2930:
  1726     0708                     l2501:
  1727     0708  09A2               	comf	___awdiv@dividend,f
  1728     0709  09A3               	comf	___awdiv@dividend+1,f
  1729     070A  0AA2               	incf	___awdiv@dividend,f
  1730     070B  1903               	skipnz
  1731     070C  0AA3               	incf	___awdiv@dividend+1,f
  1732     070D                     l2503:
  1733     070D  3001               	movlw	1
  1734     070E  00FF               	movwf	btemp+1
  1735     070F  087F               	movf	btemp+1,w
  1736     0710  06A5               	xorwf	___awdiv@sign,f
  1737     0711                     l2505:
  1738     0711  01A6               	clrf	___awdiv@quotient
  1739     0712  01A7               	clrf	___awdiv@quotient+1
  1740     0713                     l2507:
  1741     0713  0820               	movf	___awdiv@divisor,w
  1742     0714  0421               	iorwf	___awdiv@divisor+1,w
  1743     0715  1903               	btfsc	3,2
  1744     0716  2F18               	goto	u2941
  1745     0717  2F19               	goto	u2940
  1746     0718                     u2941:
  1747     0718  2F50               	goto	l2527
  1748     0719                     u2940:
  1749     0719                     l2509:
  1750     0719  01A4               	clrf	___awdiv@counter
  1751     071A  0AA4               	incf	___awdiv@counter,f
  1752     071B  2F27               	goto	l2515
  1753     071C                     l2511:
  1754     071C  3001               	movlw	1
  1755     071D                     u2955:
  1756     071D  1003               	clrc
  1757     071E  0DA0               	rlf	___awdiv@divisor,f
  1758     071F  0DA1               	rlf	___awdiv@divisor+1,f
  1759     0720  3EFF               	addlw	-1
  1760     0721  1D03               	skipz
  1761     0722  2F1D               	goto	u2955
  1762     0723                     l2513:
  1763     0723  3001               	movlw	1
  1764     0724  00FF               	movwf	btemp+1
  1765     0725  087F               	movf	btemp+1,w
  1766     0726  07A4               	addwf	___awdiv@counter,f
  1767     0727                     l2515:
  1768     0727  1FA1               	btfss	___awdiv@divisor+1,7
  1769     0728  2F2A               	goto	u2961
  1770     0729  2F2B               	goto	u2960
  1771     072A                     u2961:
  1772     072A  2F1C               	goto	l2511
  1773     072B                     u2960:
  1774     072B                     l2517:
  1775     072B  3001               	movlw	1
  1776     072C                     u2975:
  1777     072C  1003               	clrc
  1778     072D  0DA6               	rlf	___awdiv@quotient,f
  1779     072E  0DA7               	rlf	___awdiv@quotient+1,f
  1780     072F  3EFF               	addlw	-1
  1781     0730  1D03               	skipz
  1782     0731  2F2C               	goto	u2975
  1783     0732  0821               	movf	___awdiv@divisor+1,w
  1784     0733  0223               	subwf	___awdiv@dividend+1,w
  1785     0734  1D03               	skipz
  1786     0735  2F38               	goto	u2985
  1787     0736  0820               	movf	___awdiv@divisor,w
  1788     0737  0222               	subwf	___awdiv@dividend,w
  1789     0738                     u2985:
  1790     0738  1C03               	skipc
  1791     0739  2F3B               	goto	u2981
  1792     073A  2F3C               	goto	u2980
  1793     073B                     u2981:
  1794     073B  2F43               	goto	l2523
  1795     073C                     u2980:
  1796     073C                     l2519:
  1797     073C  0820               	movf	___awdiv@divisor,w
  1798     073D  02A2               	subwf	___awdiv@dividend,f
  1799     073E  0821               	movf	___awdiv@divisor+1,w
  1800     073F  1C03               	skipc
  1801     0740  03A3               	decf	___awdiv@dividend+1,f
  1802     0741  02A3               	subwf	___awdiv@dividend+1,f
  1803     0742                     l2521:
  1804     0742  1426               	bsf	___awdiv@quotient,0
  1805     0743                     l2523:
  1806     0743  3001               	movlw	1
  1807     0744                     u2995:
  1808     0744  1003               	clrc
  1809     0745  0CA1               	rrf	___awdiv@divisor+1,f
  1810     0746  0CA0               	rrf	___awdiv@divisor,f
  1811     0747  3EFF               	addlw	-1
  1812     0748  1D03               	skipz
  1813     0749  2F44               	goto	u2995
  1814     074A                     l2525:
  1815     074A  3001               	movlw	1
  1816     074B  02A4               	subwf	___awdiv@counter,f
  1817     074C  1D03               	btfss	3,2
  1818     074D  2F4F               	goto	u3001
  1819     074E  2F50               	goto	u3000
  1820     074F                     u3001:
  1821     074F  2F2B               	goto	l2517
  1822     0750                     u3000:
  1823     0750                     l2527:
  1824     0750  0825               	movf	___awdiv@sign,w
  1825     0751  1903               	btfsc	3,2
  1826     0752  2F54               	goto	u3011
  1827     0753  2F55               	goto	u3010
  1828     0754                     u3011:
  1829     0754  2F5A               	goto	l2531
  1830     0755                     u3010:
  1831     0755                     l2529:
  1832     0755  09A6               	comf	___awdiv@quotient,f
  1833     0756  09A7               	comf	___awdiv@quotient+1,f
  1834     0757  0AA6               	incf	___awdiv@quotient,f
  1835     0758  1903               	skipnz
  1836     0759  0AA7               	incf	___awdiv@quotient+1,f
  1837     075A                     l2531:
  1838     075A  0827               	movf	___awdiv@quotient+1,w
  1839     075B  00A1               	movwf	?___awdiv+1
  1840     075C  0826               	movf	___awdiv@quotient,w
  1841     075D  00A0               	movwf	?___awdiv
  1842     075E                     l592:
  1843     075E  0008               	return
  1844     075F                     __end_of___awdiv:
  1845                           
  1846                           	psect	text7
  1847     0451                     __ptext7:	
  1848 ;; *************** function _Read_Ultrasonic2 *****************
  1849 ;; Defined at:
  1850 ;;		line 229 in file "main.c"
  1851 ;; Parameters:    Size  Location     Type
  1852 ;;		None
  1853 ;; Auto vars:     Size  Location     Type
  1854 ;;  timeout         2   46[BANK0 ] unsigned int 
  1855 ;;  time            2   44[BANK0 ] unsigned int 
  1856 ;; Return value:  Size  Location     Type
  1857 ;;                  2   42[BANK0 ] unsigned int 
  1858 ;; Registers used:
  1859 ;;		wreg, status,2, status,0, btemp+1, pclath, cstack
  1860 ;; Tracked objects:
  1861 ;;		On entry : 0/0
  1862 ;;		On exit  : 0/0
  1863 ;;		Unchanged: 0/0
  1864 ;; Data sizes:     COMMON   BANK0   BANK1   BANK3   BANK2
  1865 ;;      Params:         0       2       0       0       0
  1866 ;;      Locals:         0       4       0       0       0
  1867 ;;      Temps:          0       0       0       0       0
  1868 ;;      Totals:         0       6       0       0       0
  1869 ;;Total ram usage:        6 bytes
  1870 ;; Hardware stack levels used: 1
  1871 ;; Hardware stack levels required when called: 2
  1872 ;; This function calls:
  1873 ;;		___fldiv
  1874 ;;		___fltol
  1875 ;;		___xxtofl
  1876 ;;		_delay_us
  1877 ;; This function is called by:
  1878 ;;		_main
  1879 ;; This function uses a non-reentrant model
  1880 ;;
  1881                           
  1882     0451                     _Read_Ultrasonic2:	
  1883                           ;psect for function _Read_Ultrasonic2
  1884                           
  1885     0451                     l2643:	
  1886                           ;incstack = 0
  1887                           ; Regs used in _Read_Ultrasonic2: [wreg+status,2+status,0+btemp+1+pclath+cstack]
  1888                           
  1889                           
  1890                           ;main.c: 230:     unsigned int timeout = 300;
  1891     0451  302C               	movlw	44
  1892     0452  1283               	bcf	3,5	;RP0=0, select bank0
  1893     0453  1303               	bcf	3,6	;RP1=0, select bank0
  1894     0454  00CE               	movwf	Read_Ultrasonic2@timeout
  1895     0455  3001               	movlw	1
  1896     0456  00CF               	movwf	Read_Ultrasonic2@timeout+1
  1897     0457                     l2645:
  1898                           
  1899                           ;main.c: 231:     unsigned int time = 0;
  1900     0457  01CC               	clrf	Read_Ultrasonic2@time
  1901     0458  01CD               	clrf	Read_Ultrasonic2@time+1
  1902     0459                     l2647:
  1903                           
  1904                           ;main.c: 232:     RB6 = 1;
  1905     0459  1706               	bsf	6,6	;volatile
  1906     045A                     l2649:
  1907                           
  1908                           ;main.c: 233:     delay_us(10);
  1909     045A  300A               	movlw	10
  1910     045B  00F2               	movwf	delay_us@x
  1911     045C  3000               	movlw	0
  1912     045D  00F3               	movwf	delay_us@x+1
  1913     045E  120A  158A  2665  120A  118A  	fcall	_delay_us
  1914     0463                     l2651:
  1915                           
  1916                           ;main.c: 234:     RB6 = 0;
  1917     0463  1283               	bcf	3,5	;RP0=0, select bank0
  1918     0464  1303               	bcf	3,6	;RP1=0, select bank0
  1919     0465  1306               	bcf	6,6	;volatile
  1920                           
  1921                           ;main.c: 235:     while (!RB7&& timeout--) delay_us(1);
  1922     0466  2C70               	goto	l2655
  1923     0467                     l2653:
  1924     0467  3001               	movlw	1
  1925     0468  00F2               	movwf	delay_us@x
  1926     0469  3000               	movlw	0
  1927     046A  00F3               	movwf	delay_us@x+1
  1928     046B  120A  158A  2665  120A  118A  	fcall	_delay_us
  1929     0470                     l2655:
  1930     0470  1283               	bcf	3,5	;RP0=0, select bank0
  1931     0471  1303               	bcf	3,6	;RP1=0, select bank0
  1932     0472  1B86               	btfsc	6,7	;volatile
  1933     0473  2C75               	goto	u3211
  1934     0474  2C76               	goto	u3210
  1935     0475                     u3211:
  1936     0475  2C84               	goto	l2659
  1937     0476                     u3210:
  1938     0476                     l2657:
  1939     0476  3001               	movlw	1
  1940     0477  02CE               	subwf	Read_Ultrasonic2@timeout,f
  1941     0478  3000               	movlw	0
  1942     0479  1C03               	skipc
  1943     047A  03CF               	decf	Read_Ultrasonic2@timeout+1,f
  1944     047B  02CF               	subwf	Read_Ultrasonic2@timeout+1,f
  1945     047C  0A4E               	incf	Read_Ultrasonic2@timeout,w
  1946     047D  1D03               	skipz
  1947     047E  2C83               	goto	u3221
  1948     047F  0A4F               	incf	Read_Ultrasonic2@timeout+1,w
  1949     0480  1D03               	btfss	3,2
  1950     0481  2C83               	goto	u3221
  1951     0482  2C84               	goto	u3220
  1952     0483                     u3221:
  1953     0483  2C67               	goto	l2653
  1954     0484                     u3220:
  1955     0484                     l2659:
  1956                           
  1957                           ;main.c: 236:     timeout = 30000;
  1958     0484  3030               	movlw	48
  1959     0485  00CE               	movwf	Read_Ultrasonic2@timeout
  1960     0486  3075               	movlw	117
  1961     0487  00CF               	movwf	Read_Ultrasonic2@timeout+1
  1962                           
  1963                           ;main.c: 238:     while (RB7 && timeout--) {
  1964     0488  2C9A               	goto	l2665
  1965     0489                     l2661:
  1966                           
  1967                           ;main.c: 239:         delay_us(1);
  1968     0489  3001               	movlw	1
  1969     048A  00F2               	movwf	delay_us@x
  1970     048B  3000               	movlw	0
  1971     048C  00F3               	movwf	delay_us@x+1
  1972     048D  120A  158A  2665  120A  118A  	fcall	_delay_us
  1973     0492                     l2663:
  1974                           
  1975                           ;main.c: 240:         time++;
  1976     0492  3001               	movlw	1
  1977     0493  1283               	bcf	3,5	;RP0=0, select bank0
  1978     0494  1303               	bcf	3,6	;RP1=0, select bank0
  1979     0495  07CC               	addwf	Read_Ultrasonic2@time,f
  1980     0496  1803               	skipnc
  1981     0497  0ACD               	incf	Read_Ultrasonic2@time+1,f
  1982     0498  3000               	movlw	0
  1983     0499  07CD               	addwf	Read_Ultrasonic2@time+1,f
  1984     049A                     l2665:
  1985                           
  1986                           ;main.c: 238:     while (RB7 && timeout--) {
  1987     049A  1F86               	btfss	6,7	;volatile
  1988     049B  2C9D               	goto	u3231
  1989     049C  2C9E               	goto	u3230
  1990     049D                     u3231:
  1991     049D  2CAC               	goto	l2669
  1992     049E                     u3230:
  1993     049E                     l2667:
  1994     049E  3001               	movlw	1
  1995     049F  02CE               	subwf	Read_Ultrasonic2@timeout,f
  1996     04A0  3000               	movlw	0
  1997     04A1  1C03               	skipc
  1998     04A2  03CF               	decf	Read_Ultrasonic2@timeout+1,f
  1999     04A3  02CF               	subwf	Read_Ultrasonic2@timeout+1,f
  2000     04A4  0A4E               	incf	Read_Ultrasonic2@timeout,w
  2001     04A5  1D03               	skipz
  2002     04A6  2CAB               	goto	u3241
  2003     04A7  0A4F               	incf	Read_Ultrasonic2@timeout+1,w
  2004     04A8  1D03               	btfss	3,2
  2005     04A9  2CAB               	goto	u3241
  2006     04AA  2CAC               	goto	u3240
  2007     04AB                     u3241:
  2008     04AB  2C89               	goto	l2661
  2009     04AC                     u3240:
  2010     04AC                     l2669:
  2011                           
  2012                           ;main.c: 242:     if (timeout == 0) return -1;
  2013     04AC  084E               	movf	Read_Ultrasonic2@timeout,w
  2014     04AD  044F               	iorwf	Read_Ultrasonic2@timeout+1,w
  2015     04AE  1D03               	btfss	3,2
  2016     04AF  2CB1               	goto	u3251
  2017     04B0  2CB2               	goto	u3250
  2018     04B1                     u3251:
  2019     04B1  2CB7               	goto	l2675
  2020     04B2                     u3250:
  2021     04B2                     l2671:
  2022     04B2  30FF               	movlw	255
  2023     04B3  00CA               	movwf	?_Read_Ultrasonic2
  2024     04B4  30FF               	movlw	255
  2025     04B5  00CB               	movwf	?_Read_Ultrasonic2+1
  2026     04B6  2CEF               	goto	l266
  2027     04B7                     l2675:
  2028                           
  2029                           ;main.c: 243:     return time / 5.8;
  2030     04B7  084C               	movf	Read_Ultrasonic2@time,w
  2031     04B8  00F2               	movwf	___xxtofl@val
  2032     04B9  084D               	movf	Read_Ultrasonic2@time+1,w
  2033     04BA  00F3               	movwf	___xxtofl@val+1
  2034     04BB  01F4               	clrf	___xxtofl@val+2
  2035     04BC  01F5               	clrf	___xxtofl@val+3
  2036     04BD  3000               	movlw	0
  2037     04BE  120A  118A  22F1  120A  118A  	fcall	___xxtofl
  2038     04C3  0875               	movf	?___xxtofl+3,w
  2039     04C4  1283               	bcf	3,5	;RP0=0, select bank0
  2040     04C5  1303               	bcf	3,6	;RP1=0, select bank0
  2041     04C6  00AD               	movwf	___fldiv@b+3
  2042     04C7  0874               	movf	?___xxtofl+2,w
  2043     04C8  00AC               	movwf	___fldiv@b+2
  2044     04C9  0873               	movf	?___xxtofl+1,w
  2045     04CA  00AB               	movwf	___fldiv@b+1
  2046     04CB  0872               	movf	?___xxtofl,w
  2047     04CC  00AA               	movwf	___fldiv@b
  2048     04CD  3040               	movlw	64
  2049     04CE  00A9               	movwf	___fldiv@a+3
  2050     04CF  30B9               	movlw	185
  2051     04D0  00A8               	movwf	___fldiv@a+2
  2052     04D1  3099               	movlw	153
  2053     04D2  00A7               	movwf	___fldiv@a+1
  2054     04D3  309A               	movlw	154
  2055     04D4  00A6               	movwf	___fldiv@a
  2056     04D5  120A  118A  202B  120A  118A  	fcall	___fldiv
  2057     04DA  1283               	bcf	3,5	;RP0=0, select bank0
  2058     04DB  1303               	bcf	3,6	;RP1=0, select bank0
  2059     04DC  0829               	movf	?___fldiv+3,w
  2060     04DD  00C3               	movwf	___fltol@f1+3
  2061     04DE  0828               	movf	?___fldiv+2,w
  2062     04DF  00C2               	movwf	___fltol@f1+2
  2063     04E0  0827               	movf	?___fldiv+1,w
  2064     04E1  00C1               	movwf	___fltol@f1+1
  2065     04E2  0826               	movf	?___fldiv,w
  2066     04E3  00C0               	movwf	___fltol@f1
  2067     04E4  120A  118A  2608  120A  118A  	fcall	___fltol
  2068     04E9  1283               	bcf	3,5	;RP0=0, select bank0
  2069     04EA  1303               	bcf	3,6	;RP1=0, select bank0
  2070     04EB  0841               	movf	?___fltol+1,w
  2071     04EC  00CB               	movwf	?_Read_Ultrasonic2+1
  2072     04ED  0840               	movf	?___fltol,w
  2073     04EE  00CA               	movwf	?_Read_Ultrasonic2
  2074     04EF                     l266:
  2075     04EF  0008               	return
  2076     04F0                     __end_of_Read_Ultrasonic2:
  2077                           
  2078                           	psect	text8
  2079     03AB                     __ptext8:	
  2080 ;; *************** function _Read_Ultrasonic1 *****************
  2081 ;; Defined at:
  2082 ;;		line 212 in file "main.c"
  2083 ;; Parameters:    Size  Location     Type
  2084 ;;		None
  2085 ;; Auto vars:     Size  Location     Type
  2086 ;;  timeout         2   46[BANK0 ] unsigned int 
  2087 ;;  time            2   44[BANK0 ] unsigned int 
  2088 ;; Return value:  Size  Location     Type
  2089 ;;                  2   42[BANK0 ] unsigned int 
  2090 ;; Registers used:
  2091 ;;		wreg, status,2, status,0, btemp+1, pclath, cstack
  2092 ;; Tracked objects:
  2093 ;;		On entry : 0/0
  2094 ;;		On exit  : 0/0
  2095 ;;		Unchanged: 0/0
  2096 ;; Data sizes:     COMMON   BANK0   BANK1   BANK3   BANK2
  2097 ;;      Params:         0       2       0       0       0
  2098 ;;      Locals:         0       4       0       0       0
  2099 ;;      Temps:          0       0       0       0       0
  2100 ;;      Totals:         0       6       0       0       0
  2101 ;;Total ram usage:        6 bytes
  2102 ;; Hardware stack levels used: 1
  2103 ;; Hardware stack levels required when called: 2
  2104 ;; This function calls:
  2105 ;;		___fldiv
  2106 ;;		___fltol
  2107 ;;		___xxtofl
  2108 ;;		_delay_us
  2109 ;; This function is called by:
  2110 ;;		_main
  2111 ;; This function uses a non-reentrant model
  2112 ;;
  2113                           
  2114     03AB                     _Read_Ultrasonic1:	
  2115                           ;psect for function _Read_Ultrasonic1
  2116                           
  2117     03AB                     l2601:	
  2118                           ;incstack = 0
  2119                           ; Regs used in _Read_Ultrasonic1: [wreg+status,2+status,0+btemp+1+pclath+cstack]
  2120                           
  2121                           
  2122                           ;main.c: 213:     unsigned int timeout = 300;
  2123     03AB  302C               	movlw	44
  2124     03AC  1283               	bcf	3,5	;RP0=0, select bank0
  2125     03AD  1303               	bcf	3,6	;RP1=0, select bank0
  2126     03AE  00CE               	movwf	Read_Ultrasonic1@timeout
  2127     03AF  3001               	movlw	1
  2128     03B0  00CF               	movwf	Read_Ultrasonic1@timeout+1
  2129     03B1                     l2603:
  2130                           
  2131                           ;main.c: 214:     unsigned int time = 0;
  2132     03B1  01CC               	clrf	Read_Ultrasonic1@time
  2133     03B2  01CD               	clrf	Read_Ultrasonic1@time+1
  2134     03B3                     l2605:
  2135                           
  2136                           ;main.c: 215:     RB4 = 1;
  2137     03B3  1606               	bsf	6,4	;volatile
  2138     03B4                     l2607:
  2139                           
  2140                           ;main.c: 216:    delay_us(10);
  2141     03B4  300A               	movlw	10
  2142     03B5  00F2               	movwf	delay_us@x
  2143     03B6  3000               	movlw	0
  2144     03B7  00F3               	movwf	delay_us@x+1
  2145     03B8  120A  158A  2665  120A  118A  	fcall	_delay_us
  2146     03BD                     l2609:
  2147                           
  2148                           ;main.c: 217:     RB4 = 0;
  2149     03BD  1283               	bcf	3,5	;RP0=0, select bank0
  2150     03BE  1303               	bcf	3,6	;RP1=0, select bank0
  2151     03BF  1206               	bcf	6,4	;volatile
  2152                           
  2153                           ;main.c: 218:     while (!RB5 && timeout--) delay_us(1);
  2154     03C0  2BCA               	goto	l2613
  2155     03C1                     l2611:
  2156     03C1  3001               	movlw	1
  2157     03C2  00F2               	movwf	delay_us@x
  2158     03C3  3000               	movlw	0
  2159     03C4  00F3               	movwf	delay_us@x+1
  2160     03C5  120A  158A  2665  120A  118A  	fcall	_delay_us
  2161     03CA                     l2613:
  2162     03CA  1283               	bcf	3,5	;RP0=0, select bank0
  2163     03CB  1303               	bcf	3,6	;RP1=0, select bank0
  2164     03CC  1A86               	btfsc	6,5	;volatile
  2165     03CD  2BCF               	goto	u3151
  2166     03CE  2BD0               	goto	u3150
  2167     03CF                     u3151:
  2168     03CF  2BDE               	goto	l2617
  2169     03D0                     u3150:
  2170     03D0                     l2615:
  2171     03D0  3001               	movlw	1
  2172     03D1  02CE               	subwf	Read_Ultrasonic1@timeout,f
  2173     03D2  3000               	movlw	0
  2174     03D3  1C03               	skipc
  2175     03D4  03CF               	decf	Read_Ultrasonic1@timeout+1,f
  2176     03D5  02CF               	subwf	Read_Ultrasonic1@timeout+1,f
  2177     03D6  0A4E               	incf	Read_Ultrasonic1@timeout,w
  2178     03D7  1D03               	skipz
  2179     03D8  2BDD               	goto	u3161
  2180     03D9  0A4F               	incf	Read_Ultrasonic1@timeout+1,w
  2181     03DA  1D03               	btfss	3,2
  2182     03DB  2BDD               	goto	u3161
  2183     03DC  2BDE               	goto	u3160
  2184     03DD                     u3161:
  2185     03DD  2BC1               	goto	l2611
  2186     03DE                     u3160:
  2187     03DE                     l2617:
  2188                           
  2189                           ;main.c: 219:     if (timeout == 0) return -1;
  2190     03DE  084E               	movf	Read_Ultrasonic1@timeout,w
  2191     03DF  044F               	iorwf	Read_Ultrasonic1@timeout+1,w
  2192     03E0  1D03               	btfss	3,2
  2193     03E1  2BE3               	goto	u3171
  2194     03E2  2BE4               	goto	u3170
  2195     03E3                     u3171:
  2196     03E3  2BE9               	goto	l2623
  2197     03E4                     u3170:
  2198     03E4                     l2619:
  2199     03E4  30FF               	movlw	255
  2200     03E5  00CA               	movwf	?_Read_Ultrasonic1
  2201     03E6  30FF               	movlw	255
  2202     03E7  00CB               	movwf	?_Read_Ultrasonic1+1
  2203     03E8  2C50               	goto	l246
  2204     03E9                     l2623:
  2205                           
  2206                           ;main.c: 221:     timeout = 30000;
  2207     03E9  3030               	movlw	48
  2208     03EA  00CE               	movwf	Read_Ultrasonic1@timeout
  2209     03EB  3075               	movlw	117
  2210     03EC  00CF               	movwf	Read_Ultrasonic1@timeout+1
  2211                           
  2212                           ;main.c: 222:     while (RB5 && timeout--) {
  2213     03ED  2BFF               	goto	l2629
  2214     03EE                     l2625:
  2215                           
  2216                           ;main.c: 223:         delay_us(1);
  2217     03EE  3001               	movlw	1
  2218     03EF  00F2               	movwf	delay_us@x
  2219     03F0  3000               	movlw	0
  2220     03F1  00F3               	movwf	delay_us@x+1
  2221     03F2  120A  158A  2665  120A  118A  	fcall	_delay_us
  2222     03F7                     l2627:
  2223                           
  2224                           ;main.c: 224:         time++;
  2225     03F7  3001               	movlw	1
  2226     03F8  1283               	bcf	3,5	;RP0=0, select bank0
  2227     03F9  1303               	bcf	3,6	;RP1=0, select bank0
  2228     03FA  07CC               	addwf	Read_Ultrasonic1@time,f
  2229     03FB  1803               	skipnc
  2230     03FC  0ACD               	incf	Read_Ultrasonic1@time+1,f
  2231     03FD  3000               	movlw	0
  2232     03FE  07CD               	addwf	Read_Ultrasonic1@time+1,f
  2233     03FF                     l2629:
  2234                           
  2235                           ;main.c: 222:     while (RB5 && timeout--) {
  2236     03FF  1E86               	btfss	6,5	;volatile
  2237     0400  2C02               	goto	u3181
  2238     0401  2C03               	goto	u3180
  2239     0402                     u3181:
  2240     0402  2C11               	goto	l2633
  2241     0403                     u3180:
  2242     0403                     l2631:
  2243     0403  3001               	movlw	1
  2244     0404  02CE               	subwf	Read_Ultrasonic1@timeout,f
  2245     0405  3000               	movlw	0
  2246     0406  1C03               	skipc
  2247     0407  03CF               	decf	Read_Ultrasonic1@timeout+1,f
  2248     0408  02CF               	subwf	Read_Ultrasonic1@timeout+1,f
  2249     0409  0A4E               	incf	Read_Ultrasonic1@timeout,w
  2250     040A  1D03               	skipz
  2251     040B  2C10               	goto	u3191
  2252     040C  0A4F               	incf	Read_Ultrasonic1@timeout+1,w
  2253     040D  1D03               	btfss	3,2
  2254     040E  2C10               	goto	u3191
  2255     040F  2C11               	goto	u3190
  2256     0410                     u3191:
  2257     0410  2BEE               	goto	l2625
  2258     0411                     u3190:
  2259     0411                     l2633:
  2260                           
  2261                           ;main.c: 226:     if (timeout == 0) return -1;
  2262     0411  084E               	movf	Read_Ultrasonic1@timeout,w
  2263     0412  044F               	iorwf	Read_Ultrasonic1@timeout+1,w
  2264     0413  1D03               	btfss	3,2
  2265     0414  2C16               	goto	u3201
  2266     0415  2C17               	goto	u3200
  2267     0416                     u3201:
  2268     0416  2C18               	goto	l2639
  2269     0417                     u3200:
  2270     0417  2BE4               	goto	l2619
  2271     0418                     l2639:
  2272                           
  2273                           ;main.c: 227:     return time / 5.8;
  2274     0418  084C               	movf	Read_Ultrasonic1@time,w
  2275     0419  00F2               	movwf	___xxtofl@val
  2276     041A  084D               	movf	Read_Ultrasonic1@time+1,w
  2277     041B  00F3               	movwf	___xxtofl@val+1
  2278     041C  01F4               	clrf	___xxtofl@val+2
  2279     041D  01F5               	clrf	___xxtofl@val+3
  2280     041E  3000               	movlw	0
  2281     041F  120A  118A  22F1  120A  118A  	fcall	___xxtofl
  2282     0424  0875               	movf	?___xxtofl+3,w
  2283     0425  1283               	bcf	3,5	;RP0=0, select bank0
  2284     0426  1303               	bcf	3,6	;RP1=0, select bank0
  2285     0427  00AD               	movwf	___fldiv@b+3
  2286     0428  0874               	movf	?___xxtofl+2,w
  2287     0429  00AC               	movwf	___fldiv@b+2
  2288     042A  0873               	movf	?___xxtofl+1,w
  2289     042B  00AB               	movwf	___fldiv@b+1
  2290     042C  0872               	movf	?___xxtofl,w
  2291     042D  00AA               	movwf	___fldiv@b
  2292     042E  3040               	movlw	64
  2293     042F  00A9               	movwf	___fldiv@a+3
  2294     0430  30B9               	movlw	185
  2295     0431  00A8               	movwf	___fldiv@a+2
  2296     0432  3099               	movlw	153
  2297     0433  00A7               	movwf	___fldiv@a+1
  2298     0434  309A               	movlw	154
  2299     0435  00A6               	movwf	___fldiv@a
  2300     0436  120A  118A  202B  120A  118A  	fcall	___fldiv
  2301     043B  1283               	bcf	3,5	;RP0=0, select bank0
  2302     043C  1303               	bcf	3,6	;RP1=0, select bank0
  2303     043D  0829               	movf	?___fldiv+3,w
  2304     043E  00C3               	movwf	___fltol@f1+3
  2305     043F  0828               	movf	?___fldiv+2,w
  2306     0440  00C2               	movwf	___fltol@f1+2
  2307     0441  0827               	movf	?___fldiv+1,w
  2308     0442  00C1               	movwf	___fltol@f1+1
  2309     0443  0826               	movf	?___fldiv,w
  2310     0444  00C0               	movwf	___fltol@f1
  2311     0445  120A  118A  2608  120A  118A  	fcall	___fltol
  2312     044A  1283               	bcf	3,5	;RP0=0, select bank0
  2313     044B  1303               	bcf	3,6	;RP1=0, select bank0
  2314     044C  0841               	movf	?___fltol+1,w
  2315     044D  00CB               	movwf	?_Read_Ultrasonic1+1
  2316     044E  0840               	movf	?___fltol,w
  2317     044F  00CA               	movwf	?_Read_Ultrasonic1
  2318     0450                     l246:
  2319     0450  0008               	return
  2320     0451                     __end_of_Read_Ultrasonic1:
  2321                           
  2322                           	psect	text9
  2323     02F1                     __ptext9:	
  2324 ;; *************** function ___xxtofl *****************
  2325 ;; Defined at:
  2326 ;;		line 10 in file "C:\Program Files\Microchip\xc8\v2.46\pic\sources\c99\common\xxtofl.c"
  2327 ;; Parameters:    Size  Location     Type
  2328 ;;  sign            1    wreg     unsigned char 
  2329 ;;  val             4    2[COMMON] long 
  2330 ;; Auto vars:     Size  Location     Type
  2331 ;;  sign            1    0[BANK0 ] unsigned char 
  2332 ;;  arg             4    2[BANK0 ] unsigned long 
  2333 ;;  exp             1    1[BANK0 ] unsigned char 
  2334 ;; Return value:  Size  Location     Type
  2335 ;;                  4    2[COMMON] unsigned char 
  2336 ;; Registers used:
  2337 ;;		wreg, status,2, status,0, btemp+1
  2338 ;; Tracked objects:
  2339 ;;		On entry : 0/0
  2340 ;;		On exit  : 0/0
  2341 ;;		Unchanged: 0/0
  2342 ;; Data sizes:     COMMON   BANK0   BANK1   BANK3   BANK2
  2343 ;;      Params:         4       0       0       0       0
  2344 ;;      Locals:         0       6       0       0       0
  2345 ;;      Temps:          4       0       0       0       0
  2346 ;;      Totals:         8       6       0       0       0
  2347 ;;Total ram usage:       14 bytes
  2348 ;; Hardware stack levels used: 1
  2349 ;; Hardware stack levels required when called: 1
  2350 ;; This function calls:
  2351 ;;		Nothing
  2352 ;; This function is called by:
  2353 ;;		_Read_Ultrasonic1
  2354 ;;		_Read_Ultrasonic2
  2355 ;; This function uses a non-reentrant model
  2356 ;;
  2357                           
  2358     02F1                     ___xxtofl:	
  2359                           ;psect for function ___xxtofl
  2360                           
  2361                           
  2362                           ;incstack = 0
  2363                           ; Regs used in ___xxtofl: [wreg+status,2+status,0+btemp+1]
  2364                           ;___xxtofl@sign stored from wreg
  2365     02F1  1283               	bcf	3,5	;RP0=0, select bank0
  2366     02F2  1303               	bcf	3,6	;RP1=0, select bank0
  2367     02F3  00A0               	movwf	___xxtofl@sign
  2368     02F4                     l2085:
  2369     02F4  0820               	movf	___xxtofl@sign,w
  2370     02F5  1903               	btfsc	3,2
  2371     02F6  2AF8               	goto	u2291
  2372     02F7  2AF9               	goto	u2290
  2373     02F8                     u2291:
  2374     02F8  2B0D               	goto	l2091
  2375     02F9                     u2290:
  2376     02F9                     l2087:
  2377     02F9  1FF5               	btfss	___xxtofl@val+3,7
  2378     02FA  2AFC               	goto	u2301
  2379     02FB  2AFD               	goto	u2300
  2380     02FC                     u2301:
  2381     02FC  2B0D               	goto	l2091
  2382     02FD                     u2300:
  2383     02FD                     l2089:
  2384     02FD  0972               	comf	___xxtofl@val,w
  2385     02FE  00A2               	movwf	___xxtofl@arg
  2386     02FF  0973               	comf	___xxtofl@val+1,w
  2387     0300  00A3               	movwf	___xxtofl@arg+1
  2388     0301  0974               	comf	___xxtofl@val+2,w
  2389     0302  00A4               	movwf	___xxtofl@arg+2
  2390     0303  0975               	comf	___xxtofl@val+3,w
  2391     0304  00A5               	movwf	___xxtofl@arg+3
  2392     0305  0AA2               	incf	___xxtofl@arg,f
  2393     0306  1903               	skipnz
  2394     0307  0AA3               	incf	___xxtofl@arg+1,f
  2395     0308  1903               	skipnz
  2396     0309  0AA4               	incf	___xxtofl@arg+2,f
  2397     030A  1903               	skipnz
  2398     030B  0AA5               	incf	___xxtofl@arg+3,f
  2399     030C  2B15               	goto	l880
  2400     030D                     l2091:
  2401     030D  0875               	movf	___xxtofl@val+3,w
  2402     030E  00A5               	movwf	___xxtofl@arg+3
  2403     030F  0874               	movf	___xxtofl@val+2,w
  2404     0310  00A4               	movwf	___xxtofl@arg+2
  2405     0311  0873               	movf	___xxtofl@val+1,w
  2406     0312  00A3               	movwf	___xxtofl@arg+1
  2407     0313  0872               	movf	___xxtofl@val,w
  2408     0314  00A2               	movwf	___xxtofl@arg
  2409     0315                     l880:
  2410     0315  0875               	movf	___xxtofl@val+3,w
  2411     0316  0474               	iorwf	___xxtofl@val+2,w
  2412     0317  0473               	iorwf	___xxtofl@val+1,w
  2413     0318  0472               	iorwf	___xxtofl@val,w
  2414     0319  1D03               	skipz
  2415     031A  2B1C               	goto	u2311
  2416     031B  2B1D               	goto	u2310
  2417     031C                     u2311:
  2418     031C  2B26               	goto	l2097
  2419     031D                     u2310:
  2420     031D                     l2093:
  2421     031D  3000               	movlw	0
  2422     031E  00F5               	movwf	?___xxtofl+3
  2423     031F  3000               	movlw	0
  2424     0320  00F4               	movwf	?___xxtofl+2
  2425     0321  3000               	movlw	0
  2426     0322  00F3               	movwf	?___xxtofl+1
  2427     0323  3000               	movlw	0
  2428     0324  00F2               	movwf	?___xxtofl
  2429     0325  2BAA               	goto	l882
  2430     0326                     l2097:
  2431     0326  3096               	movlw	150
  2432     0327  00A1               	movwf	___xxtofl@exp
  2433     0328  2B36               	goto	l2103
  2434     0329                     l2099:
  2435     0329  3001               	movlw	1
  2436     032A  00FF               	movwf	btemp+1
  2437     032B  087F               	movf	btemp+1,w
  2438     032C  07A1               	addwf	___xxtofl@exp,f
  2439     032D                     l2101:
  2440     032D  3001               	movlw	1
  2441     032E                     u2325:
  2442     032E  1003               	clrc
  2443     032F  0CA5               	rrf	___xxtofl@arg+3,f
  2444     0330  0CA4               	rrf	___xxtofl@arg+2,f
  2445     0331  0CA3               	rrf	___xxtofl@arg+1,f
  2446     0332  0CA2               	rrf	___xxtofl@arg,f
  2447     0333  3EFF               	addlw	-1
  2448     0334  1D03               	skipz
  2449     0335  2B2E               	goto	u2325
  2450     0336                     l2103:
  2451     0336  30FE               	movlw	254
  2452     0337  0525               	andwf	___xxtofl@arg+3,w
  2453     0338  1D03               	btfss	3,2
  2454     0339  2B3B               	goto	u2331
  2455     033A  2B3C               	goto	u2330
  2456     033B                     u2331:
  2457     033B  2B29               	goto	l2099
  2458     033C                     u2330:
  2459     033C  2B58               	goto	l2111
  2460     033D                     l2105:
  2461     033D  3001               	movlw	1
  2462     033E  00FF               	movwf	btemp+1
  2463     033F  087F               	movf	btemp+1,w
  2464     0340  07A1               	addwf	___xxtofl@exp,f
  2465     0341                     l2107:
  2466     0341  3001               	movlw	1
  2467     0342  07A2               	addwf	___xxtofl@arg,f
  2468     0343  3000               	movlw	0
  2469     0344  1803               	skipnc
  2470     0345  3001               	movlw	1
  2471     0346  07A3               	addwf	___xxtofl@arg+1,f
  2472     0347  3000               	movlw	0
  2473     0348  1803               	skipnc
  2474     0349  3001               	movlw	1
  2475     034A  07A4               	addwf	___xxtofl@arg+2,f
  2476     034B  3000               	movlw	0
  2477     034C  1803               	skipnc
  2478     034D  3001               	movlw	1
  2479     034E  07A5               	addwf	___xxtofl@arg+3,f
  2480     034F                     l2109:
  2481     034F  3001               	movlw	1
  2482     0350                     u2345:
  2483     0350  1003               	clrc
  2484     0351  0CA5               	rrf	___xxtofl@arg+3,f
  2485     0352  0CA4               	rrf	___xxtofl@arg+2,f
  2486     0353  0CA3               	rrf	___xxtofl@arg+1,f
  2487     0354  0CA2               	rrf	___xxtofl@arg,f
  2488     0355  3EFF               	addlw	-1
  2489     0356  1D03               	skipz
  2490     0357  2B50               	goto	u2345
  2491     0358                     l2111:
  2492     0358  30FF               	movlw	255
  2493     0359  0525               	andwf	___xxtofl@arg+3,w
  2494     035A  1D03               	btfss	3,2
  2495     035B  2B5D               	goto	u2351
  2496     035C  2B5E               	goto	u2350
  2497     035D                     u2351:
  2498     035D  2B3D               	goto	l2105
  2499     035E                     u2350:
  2500     035E  2B6A               	goto	l2115
  2501     035F                     l2113:
  2502     035F  3001               	movlw	1
  2503     0360  02A1               	subwf	___xxtofl@exp,f
  2504     0361  3001               	movlw	1
  2505     0362  00F6               	movwf	??___xxtofl
  2506     0363                     u2365:
  2507     0363  1003               	clrc
  2508     0364  0DA2               	rlf	___xxtofl@arg,f
  2509     0365  0DA3               	rlf	___xxtofl@arg+1,f
  2510     0366  0DA4               	rlf	___xxtofl@arg+2,f
  2511     0367  0DA5               	rlf	___xxtofl@arg+3,f
  2512     0368  0BF6               	decfsz	??___xxtofl,f
  2513     0369  2B63               	goto	u2365
  2514     036A                     l2115:
  2515     036A  1BA4               	btfsc	___xxtofl@arg+2,7
  2516     036B  2B6D               	goto	u2371
  2517     036C  2B6E               	goto	u2370
  2518     036D                     u2371:
  2519     036D  2B74               	goto	l893
  2520     036E                     u2370:
  2521     036E                     l2117:
  2522     036E  3002               	movlw	2
  2523     036F  0221               	subwf	___xxtofl@exp,w
  2524     0370  1803               	skipnc
  2525     0371  2B73               	goto	u2381
  2526     0372  2B74               	goto	u2380
  2527     0373                     u2381:
  2528     0373  2B5F               	goto	l2113
  2529     0374                     u2380:
  2530     0374                     l893:
  2531     0374  1821               	btfsc	___xxtofl@exp,0
  2532     0375  2B77               	goto	u2391
  2533     0376  2B78               	goto	u2390
  2534     0377                     u2391:
  2535     0377  2B80               	goto	l894
  2536     0378                     u2390:
  2537     0378                     l2119:
  2538     0378  30FF               	movlw	255
  2539     0379  05A2               	andwf	___xxtofl@arg,f
  2540     037A  30FF               	movlw	255
  2541     037B  05A3               	andwf	___xxtofl@arg+1,f
  2542     037C  307F               	movlw	127
  2543     037D  05A4               	andwf	___xxtofl@arg+2,f
  2544     037E  30FF               	movlw	255
  2545     037F  05A5               	andwf	___xxtofl@arg+3,f
  2546     0380                     l894:
  2547     0380  1003               	clrc
  2548     0381  0CA1               	rrf	___xxtofl@exp,f
  2549     0382                     l2121:
  2550     0382  0821               	movf	___xxtofl@exp,w
  2551     0383  00F6               	movwf	??___xxtofl
  2552     0384  01F7               	clrf	??___xxtofl+1
  2553     0385  01F8               	clrf	??___xxtofl+2
  2554     0386  01F9               	clrf	??___xxtofl+3
  2555     0387  3018               	movlw	24
  2556     0388                     u2405:
  2557     0388  1003               	clrc
  2558     0389  0DF6               	rlf	??___xxtofl,f
  2559     038A  0DF7               	rlf	??___xxtofl+1,f
  2560     038B  0DF8               	rlf	??___xxtofl+2,f
  2561     038C  0DF9               	rlf	??___xxtofl+3,f
  2562     038D                     u2400:
  2563     038D  3EFF               	addlw	-1
  2564     038E  1D03               	skipz
  2565     038F  2B88               	goto	u2405
  2566     0390  0876               	movf	??___xxtofl,w
  2567     0391  04A2               	iorwf	___xxtofl@arg,f
  2568     0392  0877               	movf	??___xxtofl+1,w
  2569     0393  04A3               	iorwf	___xxtofl@arg+1,f
  2570     0394  0878               	movf	??___xxtofl+2,w
  2571     0395  04A4               	iorwf	___xxtofl@arg+2,f
  2572     0396  0879               	movf	??___xxtofl+3,w
  2573     0397  04A5               	iorwf	___xxtofl@arg+3,f
  2574     0398                     l2123:
  2575     0398  0820               	movf	___xxtofl@sign,w
  2576     0399  1903               	btfsc	3,2
  2577     039A  2B9C               	goto	u2411
  2578     039B  2B9D               	goto	u2410
  2579     039C                     u2411:
  2580     039C  2BA2               	goto	l2129
  2581     039D                     u2410:
  2582     039D                     l2125:
  2583     039D  1FF5               	btfss	___xxtofl@val+3,7
  2584     039E  2BA0               	goto	u2421
  2585     039F  2BA1               	goto	u2420
  2586     03A0                     u2421:
  2587     03A0  2BA2               	goto	l2129
  2588     03A1                     u2420:
  2589     03A1                     l2127:
  2590     03A1  17A5               	bsf	___xxtofl@arg+3,7
  2591     03A2                     l2129:
  2592     03A2  0825               	movf	___xxtofl@arg+3,w
  2593     03A3  00F5               	movwf	?___xxtofl+3
  2594     03A4  0824               	movf	___xxtofl@arg+2,w
  2595     03A5  00F4               	movwf	?___xxtofl+2
  2596     03A6  0823               	movf	___xxtofl@arg+1,w
  2597     03A7  00F3               	movwf	?___xxtofl+1
  2598     03A8  0822               	movf	___xxtofl@arg,w
  2599     03A9  00F2               	movwf	?___xxtofl
  2600     03AA                     l882:
  2601     03AA  0008               	return
  2602     03AB                     __end_of___xxtofl:
  2603                           
  2604                           	psect	text10
  2605     0608                     __ptext10:	
  2606 ;; *************** function ___fltol *****************
  2607 ;; Defined at:
  2608 ;;		line 43 in file "C:\Program Files\Microchip\xc8\v2.46\pic\sources\c99\common\fltol.c"
  2609 ;; Parameters:    Size  Location     Type
  2610 ;;  f1              4   32[BANK0 ] unsigned char 
  2611 ;; Auto vars:     Size  Location     Type
  2612 ;;  exp1            1   41[BANK0 ] unsigned char 
  2613 ;;  sign1           1   40[BANK0 ] unsigned char 
  2614 ;; Return value:  Size  Location     Type
  2615 ;;                  4   32[BANK0 ] long 
  2616 ;; Registers used:
  2617 ;;		wreg, status,2, status,0, btemp+1
  2618 ;; Tracked objects:
  2619 ;;		On entry : 0/0
  2620 ;;		On exit  : 0/0
  2621 ;;		Unchanged: 0/0
  2622 ;; Data sizes:     COMMON   BANK0   BANK1   BANK3   BANK2
  2623 ;;      Params:         0       4       0       0       0
  2624 ;;      Locals:         0       2       0       0       0
  2625 ;;      Temps:          0       4       0       0       0
  2626 ;;      Totals:         0      10       0       0       0
  2627 ;;Total ram usage:       10 bytes
  2628 ;; Hardware stack levels used: 1
  2629 ;; Hardware stack levels required when called: 1
  2630 ;; This function calls:
  2631 ;;		Nothing
  2632 ;; This function is called by:
  2633 ;;		_Read_Ultrasonic1
  2634 ;;		_Read_Ultrasonic2
  2635 ;; This function uses a non-reentrant model
  2636 ;;
  2637                           
  2638     0608                     ___fltol:	
  2639                           ;psect for function ___fltol
  2640                           
  2641     0608                     l2535:	
  2642                           ;incstack = 0
  2643                           ; Regs used in ___fltol: [wreg+status,2+status,0+btemp+1]
  2644                           
  2645     0608  1003               	clrc
  2646     0609  1283               	bcf	3,5	;RP0=0, select bank0
  2647     060A  1303               	bcf	3,6	;RP1=0, select bank0
  2648     060B  0D42               	rlf	___fltol@f1+2,w
  2649     060C  0D43               	rlf	___fltol@f1+3,w
  2650     060D  00C9               	movwf	___fltol@exp1
  2651     060E  0849               	movf	___fltol@exp1,w
  2652     060F  1D03               	btfss	3,2
  2653     0610  2E12               	goto	u3021
  2654     0611  2E13               	goto	u3020
  2655     0612                     u3021:
  2656     0612  2E1C               	goto	l2541
  2657     0613                     u3020:
  2658     0613                     l2537:
  2659     0613  3000               	movlw	0
  2660     0614  00C3               	movwf	?___fltol+3
  2661     0615  3000               	movlw	0
  2662     0616  00C2               	movwf	?___fltol+2
  2663     0617  3000               	movlw	0
  2664     0618  00C1               	movwf	?___fltol+1
  2665     0619  3000               	movlw	0
  2666     061A  00C0               	movwf	?___fltol
  2667     061B  2E7F               	goto	l633
  2668     061C                     l2541:
  2669     061C  0840               	movf	___fltol@f1,w
  2670     061D  00C4               	movwf	??___fltol
  2671     061E  0841               	movf	___fltol@f1+1,w
  2672     061F  00C5               	movwf	??___fltol+1
  2673     0620  0842               	movf	___fltol@f1+2,w
  2674     0621  00C6               	movwf	??___fltol+2
  2675     0622  0843               	movf	___fltol@f1+3,w
  2676     0623  00C7               	movwf	??___fltol+3
  2677     0624  301F               	movlw	31
  2678     0625                     u3035:
  2679     0625  1003               	clrc
  2680     0626  0CC7               	rrf	??___fltol+3,f
  2681     0627  0CC6               	rrf	??___fltol+2,f
  2682     0628  0CC5               	rrf	??___fltol+1,f
  2683     0629  0CC4               	rrf	??___fltol,f
  2684     062A                     u3030:
  2685     062A  3EFF               	addlw	-1
  2686     062B  1D03               	skipz
  2687     062C  2E25               	goto	u3035
  2688     062D  0844               	movf	??___fltol,w
  2689     062E  00C8               	movwf	___fltol@sign1
  2690     062F                     l2543:
  2691     062F  17C2               	bsf	___fltol@f1+2,7
  2692     0630                     l2545:
  2693     0630  30FF               	movlw	255
  2694     0631  05C0               	andwf	___fltol@f1,f
  2695     0632  30FF               	movlw	255
  2696     0633  05C1               	andwf	___fltol@f1+1,f
  2697     0634  30FF               	movlw	255
  2698     0635  05C2               	andwf	___fltol@f1+2,f
  2699     0636  3000               	movlw	0
  2700     0637  05C3               	andwf	___fltol@f1+3,f
  2701     0638                     l2547:
  2702     0638  3096               	movlw	150
  2703     0639  02C9               	subwf	___fltol@exp1,f
  2704     063A                     l2549:
  2705     063A  1FC9               	btfss	___fltol@exp1,7
  2706     063B  2E3D               	goto	u3041
  2707     063C  2E3E               	goto	u3040
  2708     063D                     u3041:
  2709     063D  2E58               	goto	l2561
  2710     063E                     u3040:
  2711     063E                     l2551:
  2712     063E  0849               	movf	___fltol@exp1,w
  2713     063F  3A80               	xorlw	128
  2714     0640  3E97               	addlw	151
  2715     0641  1803               	skipnc
  2716     0642  2E44               	goto	u3051
  2717     0643  2E45               	goto	u3050
  2718     0644                     u3051:
  2719     0644  2E46               	goto	l2557
  2720     0645                     u3050:
  2721     0645  2E13               	goto	l2537
  2722     0646                     l2557:
  2723     0646  3001               	movlw	1
  2724     0647                     u3065:
  2725     0647  1003               	clrc
  2726     0648  0CC3               	rrf	___fltol@f1+3,f
  2727     0649  0CC2               	rrf	___fltol@f1+2,f
  2728     064A  0CC1               	rrf	___fltol@f1+1,f
  2729     064B  0CC0               	rrf	___fltol@f1,f
  2730     064C  3EFF               	addlw	-1
  2731     064D  1D03               	skipz
  2732     064E  2E47               	goto	u3065
  2733     064F                     l2559:
  2734     064F  3001               	movlw	1
  2735     0650  00FF               	movwf	btemp+1
  2736     0651  087F               	movf	btemp+1,w
  2737     0652  07C9               	addwf	___fltol@exp1,f
  2738     0653  1D03               	btfss	3,2
  2739     0654  2E56               	goto	u3071
  2740     0655  2E57               	goto	u3070
  2741     0656                     u3071:
  2742     0656  2E46               	goto	l2557
  2743     0657                     u3070:
  2744     0657  2E6F               	goto	l2569
  2745     0658                     l2561:
  2746     0658  3020               	movlw	32
  2747     0659  0249               	subwf	___fltol@exp1,w
  2748     065A  1C03               	skipc
  2749     065B  2E5D               	goto	u3081
  2750     065C  2E5E               	goto	u3080
  2751     065D                     u3081:
  2752     065D  2E6A               	goto	l640
  2753     065E                     u3080:
  2754     065E  2E13               	goto	l2537
  2755     065F                     l2567:
  2756     065F  3001               	movlw	1
  2757     0660  00C4               	movwf	??___fltol
  2758     0661                     u3095:
  2759     0661  1003               	clrc
  2760     0662  0DC0               	rlf	___fltol@f1,f
  2761     0663  0DC1               	rlf	___fltol@f1+1,f
  2762     0664  0DC2               	rlf	___fltol@f1+2,f
  2763     0665  0DC3               	rlf	___fltol@f1+3,f
  2764     0666  0BC4               	decfsz	??___fltol,f
  2765     0667  2E61               	goto	u3095
  2766     0668  3001               	movlw	1
  2767     0669  02C9               	subwf	___fltol@exp1,f
  2768     066A                     l640:
  2769     066A  0849               	movf	___fltol@exp1,w
  2770     066B  1D03               	btfss	3,2
  2771     066C  2E6E               	goto	u3101
  2772     066D  2E6F               	goto	u3100
  2773     066E                     u3101:
  2774     066E  2E5F               	goto	l2567
  2775     066F                     u3100:
  2776     066F                     l2569:
  2777     066F  0848               	movf	___fltol@sign1,w
  2778     0670  1903               	btfsc	3,2
  2779     0671  2E73               	goto	u3111
  2780     0672  2E74               	goto	u3110
  2781     0673                     u3111:
  2782     0673  2E7F               	goto	l643
  2783     0674                     u3110:
  2784     0674                     l2571:
  2785     0674  09C0               	comf	___fltol@f1,f
  2786     0675  09C1               	comf	___fltol@f1+1,f
  2787     0676  09C2               	comf	___fltol@f1+2,f
  2788     0677  09C3               	comf	___fltol@f1+3,f
  2789     0678  0AC0               	incf	___fltol@f1,f
  2790     0679  1903               	skipnz
  2791     067A  0AC1               	incf	___fltol@f1+1,f
  2792     067B  1903               	skipnz
  2793     067C  0AC2               	incf	___fltol@f1+2,f
  2794     067D  1903               	skipnz
  2795     067E  0AC3               	incf	___fltol@f1+3,f
  2796     067F                     l643:
  2797     067F                     l633:
  2798     067F  0008               	return
  2799     0680                     __end_of___fltol:
  2800                           
  2801                           	psect	text11
  2802     002B                     __ptext11:	
  2803 ;; *************** function ___fldiv *****************
  2804 ;; Defined at:
  2805 ;;		line 8 in file "C:\Program Files\Microchip\xc8\v2.46\pic\sources\c99\common\sprcdiv.c"
  2806 ;; Parameters:    Size  Location     Type
  2807 ;;  a               4    6[BANK0 ] long 
  2808 ;;  b               4   10[BANK0 ] long 
  2809 ;; Auto vars:     Size  Location     Type
  2810 ;;  grs             4   26[BANK0 ] unsigned long 
  2811 ;;  rem             4   19[BANK0 ] unsigned long 
  2812 ;;  new_exp         2   24[BANK0 ] short 
  2813 ;;  aexp            1   31[BANK0 ] unsigned char 
  2814 ;;  bexp            1   30[BANK0 ] unsigned char 
  2815 ;;  sign            1   23[BANK0 ] unsigned char 
  2816 ;; Return value:  Size  Location     Type
  2817 ;;                  4    6[BANK0 ] unsigned char 
  2818 ;; Registers used:
  2819 ;;		wreg, status,2, status,0, btemp+1
  2820 ;; Tracked objects:
  2821 ;;		On entry : 0/0
  2822 ;;		On exit  : 0/0
  2823 ;;		Unchanged: 0/0
  2824 ;; Data sizes:     COMMON   BANK0   BANK1   BANK3   BANK2
  2825 ;;      Params:         0       8       0       0       0
  2826 ;;      Locals:         0      13       0       0       0
  2827 ;;      Temps:          0       5       0       0       0
  2828 ;;      Totals:         0      26       0       0       0
  2829 ;;Total ram usage:       26 bytes
  2830 ;; Hardware stack levels used: 1
  2831 ;; Hardware stack levels required when called: 1
  2832 ;; This function calls:
  2833 ;;		Nothing
  2834 ;; This function is called by:
  2835 ;;		_Read_Ultrasonic1
  2836 ;;		_Read_Ultrasonic2
  2837 ;; This function uses a non-reentrant model
  2838 ;;
  2839                           
  2840     002B                     ___fldiv:	
  2841                           ;psect for function ___fldiv
  2842                           
  2843     002B                     l1939:	
  2844                           ;incstack = 0
  2845                           ; Regs used in ___fldiv: [wreg+status,2+status,0+btemp+1]
  2846                           
  2847     002B  1283               	bcf	3,5	;RP0=0, select bank0
  2848     002C  1303               	bcf	3,6	;RP1=0, select bank0
  2849     002D  082D               	movf	___fldiv@b+3,w
  2850     002E  3980               	andlw	128
  2851     002F  00B7               	movwf	___fldiv@sign
  2852     0030                     l1941:
  2853     0030  082D               	movf	___fldiv@b+3,w
  2854     0031  00AE               	movwf	??___fldiv
  2855     0032  072E               	addwf	??___fldiv,w
  2856     0033  00BE               	movwf	___fldiv@bexp
  2857     0034                     l1943:
  2858     0034  1FAC               	btfss	___fldiv@b+2,7
  2859     0035  2837               	goto	u2001
  2860     0036  2838               	goto	u2000
  2861     0037                     u2001:
  2862     0037  2839               	goto	l1947
  2863     0038                     u2000:
  2864     0038                     l1945:
  2865     0038  143E               	bsf	___fldiv@bexp,0
  2866     0039                     l1947:
  2867     0039  083E               	movf	___fldiv@bexp,w
  2868     003A  1903               	btfsc	3,2
  2869     003B  283D               	goto	u2011
  2870     003C  283E               	goto	u2010
  2871     003D                     u2011:
  2872     003D  284E               	goto	l1957
  2873     003E                     u2010:
  2874     003E                     l1949:
  2875     003E  0A3E               	incf	___fldiv@bexp,w
  2876     003F  1D03               	btfss	3,2
  2877     0040  2842               	goto	u2021
  2878     0041  2843               	goto	u2020
  2879     0042                     u2021:
  2880     0042  284B               	goto	l1953
  2881     0043                     u2020:
  2882     0043                     l1951:
  2883     0043  3000               	movlw	0
  2884     0044  00AD               	movwf	___fldiv@b+3
  2885     0045  3000               	movlw	0
  2886     0046  00AC               	movwf	___fldiv@b+2
  2887     0047  3000               	movlw	0
  2888     0048  00AB               	movwf	___fldiv@b+1
  2889     0049  3000               	movlw	0
  2890     004A  00AA               	movwf	___fldiv@b
  2891     004B                     l1953:
  2892     004B  17AC               	bsf	___fldiv@b+2,7
  2893     004C                     l1955:
  2894     004C  01AD               	clrf	___fldiv@b+3
  2895     004D  2856               	goto	l1959
  2896     004E                     l1957:
  2897     004E  3000               	movlw	0
  2898     004F  00AD               	movwf	___fldiv@b+3
  2899     0050  3000               	movlw	0
  2900     0051  00AC               	movwf	___fldiv@b+2
  2901     0052  3000               	movlw	0
  2902     0053  00AB               	movwf	___fldiv@b+1
  2903     0054  3000               	movlw	0
  2904     0055  00AA               	movwf	___fldiv@b
  2905     0056                     l1959:
  2906     0056  0829               	movf	___fldiv@a+3,w
  2907     0057  3980               	andlw	128
  2908     0058  00FF               	movwf	btemp+1
  2909     0059  087F               	movf	btemp+1,w
  2910     005A  06B7               	xorwf	___fldiv@sign,f
  2911     005B                     l1961:
  2912     005B  0829               	movf	___fldiv@a+3,w
  2913     005C  00AE               	movwf	??___fldiv
  2914     005D  072E               	addwf	??___fldiv,w
  2915     005E  00BF               	movwf	___fldiv@aexp
  2916     005F                     l1963:
  2917     005F  1FA8               	btfss	___fldiv@a+2,7
  2918     0060  2862               	goto	u2031
  2919     0061  2863               	goto	u2030
  2920     0062                     u2031:
  2921     0062  2864               	goto	l1967
  2922     0063                     u2030:
  2923     0063                     l1965:
  2924     0063  143F               	bsf	___fldiv@aexp,0
  2925     0064                     l1967:
  2926     0064  083F               	movf	___fldiv@aexp,w
  2927     0065  1903               	btfsc	3,2
  2928     0066  2868               	goto	u2041
  2929     0067  2869               	goto	u2040
  2930     0068                     u2041:
  2931     0068  2879               	goto	l1977
  2932     0069                     u2040:
  2933     0069                     l1969:
  2934     0069  0A3F               	incf	___fldiv@aexp,w
  2935     006A  1D03               	btfss	3,2
  2936     006B  286D               	goto	u2051
  2937     006C  286E               	goto	u2050
  2938     006D                     u2051:
  2939     006D  2876               	goto	l1973
  2940     006E                     u2050:
  2941     006E                     l1971:
  2942     006E  3000               	movlw	0
  2943     006F  00A9               	movwf	___fldiv@a+3
  2944     0070  3000               	movlw	0
  2945     0071  00A8               	movwf	___fldiv@a+2
  2946     0072  3000               	movlw	0
  2947     0073  00A7               	movwf	___fldiv@a+1
  2948     0074  3000               	movlw	0
  2949     0075  00A6               	movwf	___fldiv@a
  2950     0076                     l1973:
  2951     0076  17A8               	bsf	___fldiv@a+2,7
  2952     0077                     l1975:
  2953     0077  01A9               	clrf	___fldiv@a+3
  2954     0078  2881               	goto	l796
  2955     0079                     l1977:
  2956     0079  3000               	movlw	0
  2957     007A  00A9               	movwf	___fldiv@a+3
  2958     007B  3000               	movlw	0
  2959     007C  00A8               	movwf	___fldiv@a+2
  2960     007D  3000               	movlw	0
  2961     007E  00A7               	movwf	___fldiv@a+1
  2962     007F  3000               	movlw	0
  2963     0080  00A6               	movwf	___fldiv@a
  2964     0081                     l796:
  2965     0081  0829               	movf	___fldiv@a+3,w
  2966     0082  0428               	iorwf	___fldiv@a+2,w
  2967     0083  0427               	iorwf	___fldiv@a+1,w
  2968     0084  0426               	iorwf	___fldiv@a,w
  2969     0085  1D03               	skipz
  2970     0086  2888               	goto	u2061
  2971     0087  2889               	goto	u2060
  2972     0088                     u2061:
  2973     0088  28A2               	goto	l1987
  2974     0089                     u2060:
  2975     0089                     l1979:
  2976     0089  3000               	movlw	0
  2977     008A  00AD               	movwf	___fldiv@b+3
  2978     008B  3000               	movlw	0
  2979     008C  00AC               	movwf	___fldiv@b+2
  2980     008D  3000               	movlw	0
  2981     008E  00AB               	movwf	___fldiv@b+1
  2982     008F  3000               	movlw	0
  2983     0090  00AA               	movwf	___fldiv@b
  2984     0091  3080               	movlw	128
  2985     0092  04AC               	iorwf	___fldiv@b+2,f
  2986     0093  307F               	movlw	127
  2987     0094  04AD               	iorwf	___fldiv@b+3,f
  2988     0095                     l1981:
  2989     0095  0837               	movf	___fldiv@sign,w
  2990     0096  00FF               	movwf	btemp+1
  2991     0097  087F               	movf	btemp+1,w
  2992     0098  04AD               	iorwf	___fldiv@b+3,f
  2993     0099                     l1983:
  2994     0099  082D               	movf	___fldiv@b+3,w
  2995     009A  00A9               	movwf	?___fldiv+3
  2996     009B  082C               	movf	___fldiv@b+2,w
  2997     009C  00A8               	movwf	?___fldiv+2
  2998     009D  082B               	movf	___fldiv@b+1,w
  2999     009E  00A7               	movwf	?___fldiv+1
  3000     009F  082A               	movf	___fldiv@b,w
  3001     00A0  00A6               	movwf	?___fldiv
  3002     00A1  29F9               	goto	l798
  3003     00A2                     l1987:
  3004     00A2  083E               	movf	___fldiv@bexp,w
  3005     00A3  1D03               	btfss	3,2
  3006     00A4  28A6               	goto	u2071
  3007     00A5  28A7               	goto	u2070
  3008     00A6                     u2071:
  3009     00A6  28B0               	goto	l1993
  3010     00A7                     u2070:
  3011     00A7                     l1989:
  3012     00A7  3000               	movlw	0
  3013     00A8  00A9               	movwf	?___fldiv+3
  3014     00A9  3000               	movlw	0
  3015     00AA  00A8               	movwf	?___fldiv+2
  3016     00AB  3000               	movlw	0
  3017     00AC  00A7               	movwf	?___fldiv+1
  3018     00AD  3000               	movlw	0
  3019     00AE  00A6               	movwf	?___fldiv
  3020     00AF  29F9               	goto	l798
  3021     00B0                     l1993:
  3022     00B0  083E               	movf	___fldiv@bexp,w
  3023     00B1  00AE               	movwf	??___fldiv
  3024     00B2  01AF               	clrf	??___fldiv+1
  3025     00B3  082F               	movf	??___fldiv+1,w
  3026     00B4  00B1               	movwf	??___fldiv+3
  3027     00B5  083F               	movf	___fldiv@aexp,w
  3028     00B6  022E               	subwf	??___fldiv,w
  3029     00B7  00B0               	movwf	??___fldiv+2
  3030     00B8  1C03               	skipc
  3031     00B9  03B1               	decf	??___fldiv+3,f
  3032     00BA  0830               	movf	??___fldiv+2,w
  3033     00BB  3E7F               	addlw	127
  3034     00BC  00B8               	movwf	___fldiv@new_exp
  3035     00BD  0831               	movf	??___fldiv+3,w
  3036     00BE  1803               	skipnc
  3037     00BF  3E01               	addlw	1
  3038     00C0  3E00               	addlw	0
  3039     00C1  00B9               	movwf	___fldiv@new_exp+1
  3040     00C2                     l1995:
  3041     00C2  082D               	movf	___fldiv@b+3,w
  3042     00C3  00B6               	movwf	___fldiv@rem+3
  3043     00C4  082C               	movf	___fldiv@b+2,w
  3044     00C5  00B5               	movwf	___fldiv@rem+2
  3045     00C6  082B               	movf	___fldiv@b+1,w
  3046     00C7  00B4               	movwf	___fldiv@rem+1
  3047     00C8  082A               	movf	___fldiv@b,w
  3048     00C9  00B3               	movwf	___fldiv@rem
  3049     00CA                     l1997:
  3050     00CA  3000               	movlw	0
  3051     00CB  00AD               	movwf	___fldiv@b+3
  3052     00CC  3000               	movlw	0
  3053     00CD  00AC               	movwf	___fldiv@b+2
  3054     00CE  3000               	movlw	0
  3055     00CF  00AB               	movwf	___fldiv@b+1
  3056     00D0  3000               	movlw	0
  3057     00D1  00AA               	movwf	___fldiv@b
  3058     00D2                     l1999:
  3059     00D2  3000               	movlw	0
  3060     00D3  00BD               	movwf	___fldiv@grs+3
  3061     00D4  3000               	movlw	0
  3062     00D5  00BC               	movwf	___fldiv@grs+2
  3063     00D6  3000               	movlw	0
  3064     00D7  00BB               	movwf	___fldiv@grs+1
  3065     00D8  3000               	movlw	0
  3066     00D9  00BA               	movwf	___fldiv@grs
  3067     00DA                     l2001:
  3068     00DA  01BF               	clrf	___fldiv@aexp
  3069     00DB  2926               	goto	l2021
  3070     00DC                     l2003:
  3071     00DC  083F               	movf	___fldiv@aexp,w
  3072     00DD  1903               	btfsc	3,2
  3073     00DE  28E0               	goto	u2081
  3074     00DF  28E1               	goto	u2080
  3075     00E0                     u2081:
  3076     00E0  2901               	goto	l2013
  3077     00E1                     u2080:
  3078     00E1                     l2005:
  3079     00E1  3001               	movlw	1
  3080     00E2  00AE               	movwf	??___fldiv
  3081     00E3                     u2095:
  3082     00E3  1003               	clrc
  3083     00E4  0DB3               	rlf	___fldiv@rem,f
  3084     00E5  0DB4               	rlf	___fldiv@rem+1,f
  3085     00E6  0DB5               	rlf	___fldiv@rem+2,f
  3086     00E7  0DB6               	rlf	___fldiv@rem+3,f
  3087     00E8  0BAE               	decfsz	??___fldiv,f
  3088     00E9  28E3               	goto	u2095
  3089     00EA  3001               	movlw	1
  3090     00EB  00AE               	movwf	??___fldiv
  3091     00EC                     u2105:
  3092     00EC  1003               	clrc
  3093     00ED  0DAA               	rlf	___fldiv@b,f
  3094     00EE  0DAB               	rlf	___fldiv@b+1,f
  3095     00EF  0DAC               	rlf	___fldiv@b+2,f
  3096     00F0  0DAD               	rlf	___fldiv@b+3,f
  3097     00F1  0BAE               	decfsz	??___fldiv,f
  3098     00F2  28EC               	goto	u2105
  3099     00F3                     l2007:
  3100     00F3  1FBD               	btfss	___fldiv@grs+3,7
  3101     00F4  28F6               	goto	u2111
  3102     00F5  28F7               	goto	u2110
  3103     00F6                     u2111:
  3104     00F6  28F8               	goto	l2011
  3105     00F7                     u2110:
  3106     00F7                     l2009:
  3107     00F7  142A               	bsf	___fldiv@b,0
  3108     00F8                     l2011:
  3109     00F8  3001               	movlw	1
  3110     00F9  00AE               	movwf	??___fldiv
  3111     00FA                     u2125:
  3112     00FA  1003               	clrc
  3113     00FB  0DBA               	rlf	___fldiv@grs,f
  3114     00FC  0DBB               	rlf	___fldiv@grs+1,f
  3115     00FD  0DBC               	rlf	___fldiv@grs+2,f
  3116     00FE  0DBD               	rlf	___fldiv@grs+3,f
  3117     00FF  0BAE               	decfsz	??___fldiv,f
  3118     0100  28FA               	goto	u2125
  3119     0101                     l2013:
  3120     0101  0829               	movf	___fldiv@a+3,w
  3121     0102  0236               	subwf	___fldiv@rem+3,w
  3122     0103  1D03               	skipz
  3123     0104  290F               	goto	u2135
  3124     0105  0828               	movf	___fldiv@a+2,w
  3125     0106  0235               	subwf	___fldiv@rem+2,w
  3126     0107  1D03               	skipz
  3127     0108  290F               	goto	u2135
  3128     0109  0827               	movf	___fldiv@a+1,w
  3129     010A  0234               	subwf	___fldiv@rem+1,w
  3130     010B  1D03               	skipz
  3131     010C  290F               	goto	u2135
  3132     010D  0826               	movf	___fldiv@a,w
  3133     010E  0233               	subwf	___fldiv@rem,w
  3134     010F                     u2135:
  3135     010F  1C03               	skipc
  3136     0110  2912               	goto	u2131
  3137     0111  2913               	goto	u2130
  3138     0112                     u2131:
  3139     0112  2922               	goto	l2019
  3140     0113                     u2130:
  3141     0113                     l2015:
  3142     0113  173D               	bsf	___fldiv@grs+3,6
  3143     0114                     l2017:
  3144     0114  0826               	movf	___fldiv@a,w
  3145     0115  02B3               	subwf	___fldiv@rem,f
  3146     0116  0827               	movf	___fldiv@a+1,w
  3147     0117  1C03               	skipc
  3148     0118  0F27               	incfsz	___fldiv@a+1,w
  3149     0119  02B4               	subwf	___fldiv@rem+1,f
  3150     011A  0828               	movf	___fldiv@a+2,w
  3151     011B  1C03               	skipc
  3152     011C  0F28               	incfsz	___fldiv@a+2,w
  3153     011D  02B5               	subwf	___fldiv@rem+2,f
  3154     011E  0829               	movf	___fldiv@a+3,w
  3155     011F  1C03               	skipc
  3156     0120  0F29               	incfsz	___fldiv@a+3,w
  3157     0121  02B6               	subwf	___fldiv@rem+3,f
  3158     0122                     l2019:
  3159     0122  3001               	movlw	1
  3160     0123  00FF               	movwf	btemp+1
  3161     0124  087F               	movf	btemp+1,w
  3162     0125  07BF               	addwf	___fldiv@aexp,f
  3163     0126                     l2021:
  3164     0126  301A               	movlw	26
  3165     0127  023F               	subwf	___fldiv@aexp,w
  3166     0128  1C03               	skipc
  3167     0129  292B               	goto	u2141
  3168     012A  292C               	goto	u2140
  3169     012B                     u2141:
  3170     012B  28DC               	goto	l2003
  3171     012C                     u2140:
  3172     012C                     l2023:
  3173     012C  0836               	movf	___fldiv@rem+3,w
  3174     012D  0435               	iorwf	___fldiv@rem+2,w
  3175     012E  0434               	iorwf	___fldiv@rem+1,w
  3176     012F  0433               	iorwf	___fldiv@rem,w
  3177     0130  1903               	skipnz
  3178     0131  2933               	goto	u2151
  3179     0132  2934               	goto	u2150
  3180     0133                     u2151:
  3181     0133  2953               	goto	l2037
  3182     0134                     u2150:
  3183     0134                     l2025:
  3184     0134  143A               	bsf	___fldiv@grs,0
  3185     0135  2953               	goto	l2037
  3186     0136                     l2027:
  3187     0136  3001               	movlw	1
  3188     0137  00AE               	movwf	??___fldiv
  3189     0138                     u2165:
  3190     0138  1003               	clrc
  3191     0139  0DAA               	rlf	___fldiv@b,f
  3192     013A  0DAB               	rlf	___fldiv@b+1,f
  3193     013B  0DAC               	rlf	___fldiv@b+2,f
  3194     013C  0DAD               	rlf	___fldiv@b+3,f
  3195     013D  0BAE               	decfsz	??___fldiv,f
  3196     013E  2938               	goto	u2165
  3197     013F                     l2029:
  3198     013F  1FBD               	btfss	___fldiv@grs+3,7
  3199     0140  2942               	goto	u2171
  3200     0141  2943               	goto	u2170
  3201     0142                     u2171:
  3202     0142  2944               	goto	l2033
  3203     0143                     u2170:
  3204     0143                     l2031:
  3205     0143  142A               	bsf	___fldiv@b,0
  3206     0144                     l2033:
  3207     0144  3001               	movlw	1
  3208     0145  00AE               	movwf	??___fldiv
  3209     0146                     u2185:
  3210     0146  1003               	clrc
  3211     0147  0DBA               	rlf	___fldiv@grs,f
  3212     0148  0DBB               	rlf	___fldiv@grs+1,f
  3213     0149  0DBC               	rlf	___fldiv@grs+2,f
  3214     014A  0DBD               	rlf	___fldiv@grs+3,f
  3215     014B  0BAE               	decfsz	??___fldiv,f
  3216     014C  2946               	goto	u2185
  3217     014D                     l2035:
  3218     014D  30FF               	movlw	255
  3219     014E  07B8               	addwf	___fldiv@new_exp,f
  3220     014F  1803               	skipnc
  3221     0150  0AB9               	incf	___fldiv@new_exp+1,f
  3222     0151  30FF               	movlw	255
  3223     0152  07B9               	addwf	___fldiv@new_exp+1,f
  3224     0153                     l2037:
  3225     0153  1FAC               	btfss	___fldiv@b+2,7
  3226     0154  2956               	goto	u2191
  3227     0155  2957               	goto	u2190
  3228     0156                     u2191:
  3229     0156  2936               	goto	l2027
  3230     0157                     u2190:
  3231     0157                     l2039:
  3232     0157  01BF               	clrf	___fldiv@aexp
  3233     0158                     l2041:
  3234     0158  1FBD               	btfss	___fldiv@grs+3,7
  3235     0159  295B               	goto	u2201
  3236     015A  295C               	goto	u2200
  3237     015B                     u2201:
  3238     015B  2978               	goto	l2049
  3239     015C                     u2200:
  3240     015C                     l2043:
  3241     015C  30FF               	movlw	255
  3242     015D  053A               	andwf	___fldiv@grs,w
  3243     015E  00AE               	movwf	??___fldiv
  3244     015F  30FF               	movlw	255
  3245     0160  053B               	andwf	___fldiv@grs+1,w
  3246     0161  00AF               	movwf	??___fldiv+1
  3247     0162  30FF               	movlw	255
  3248     0163  053C               	andwf	___fldiv@grs+2,w
  3249     0164  00B0               	movwf	??___fldiv+2
  3250     0165  307F               	movlw	127
  3251     0166  053D               	andwf	___fldiv@grs+3,w
  3252     0167  00B1               	movwf	??___fldiv+3
  3253     0168  0831               	movf	??___fldiv+3,w
  3254     0169  0430               	iorwf	??___fldiv+2,w
  3255     016A  042F               	iorwf	??___fldiv+1,w
  3256     016B  042E               	iorwf	??___fldiv,w
  3257     016C  1903               	skipnz
  3258     016D  296F               	goto	u2211
  3259     016E  2970               	goto	u2210
  3260     016F                     u2211:
  3261     016F  2973               	goto	l812
  3262     0170                     u2210:
  3263     0170                     l2045:
  3264     0170  01BF               	clrf	___fldiv@aexp
  3265     0171  0ABF               	incf	___fldiv@aexp,f
  3266     0172  2978               	goto	l2049
  3267     0173                     l812:
  3268     0173  1C2A               	btfss	___fldiv@b,0
  3269     0174  2976               	goto	u2221
  3270     0175  2977               	goto	u2220
  3271     0176                     u2221:
  3272     0176  2978               	goto	l2049
  3273     0177                     u2220:
  3274     0177  2970               	goto	l2045
  3275     0178                     l2049:
  3276     0178  083F               	movf	___fldiv@aexp,w
  3277     0179  1903               	btfsc	3,2
  3278     017A  297C               	goto	u2231
  3279     017B  297D               	goto	u2230
  3280     017C                     u2231:
  3281     017C  29AE               	goto	l2059
  3282     017D                     u2230:
  3283     017D                     l2051:
  3284     017D  3001               	movlw	1
  3285     017E  07AA               	addwf	___fldiv@b,f
  3286     017F  3000               	movlw	0
  3287     0180  1803               	skipnc
  3288     0181  3001               	movlw	1
  3289     0182  07AB               	addwf	___fldiv@b+1,f
  3290     0183  3000               	movlw	0
  3291     0184  1803               	skipnc
  3292     0185  3001               	movlw	1
  3293     0186  07AC               	addwf	___fldiv@b+2,f
  3294     0187  3000               	movlw	0
  3295     0188  1803               	skipnc
  3296     0189  3001               	movlw	1
  3297     018A  07AD               	addwf	___fldiv@b+3,f
  3298     018B                     l2053:
  3299     018B  1C2D               	btfss	___fldiv@b+3,0
  3300     018C  298E               	goto	u2241
  3301     018D  298F               	goto	u2240
  3302     018E                     u2241:
  3303     018E  29AE               	goto	l2059
  3304     018F                     u2240:
  3305     018F                     l2055:
  3306     018F  082A               	movf	___fldiv@b,w
  3307     0190  00AE               	movwf	??___fldiv
  3308     0191  082B               	movf	___fldiv@b+1,w
  3309     0192  00AF               	movwf	??___fldiv+1
  3310     0193  082C               	movf	___fldiv@b+2,w
  3311     0194  00B0               	movwf	??___fldiv+2
  3312     0195  082D               	movf	___fldiv@b+3,w
  3313     0196  00B1               	movwf	??___fldiv+3
  3314     0197  3001               	movlw	1
  3315     0198  00B2               	movwf	??___fldiv+4
  3316     0199                     u2255:
  3317     0199  0D31               	rlf	??___fldiv+3,w
  3318     019A  0CB1               	rrf	??___fldiv+3,f
  3319     019B  0CB0               	rrf	??___fldiv+2,f
  3320     019C  0CAF               	rrf	??___fldiv+1,f
  3321     019D  0CAE               	rrf	??___fldiv,f
  3322     019E                     u2250:
  3323     019E  0BB2               	decfsz	??___fldiv+4,f
  3324     019F  2999               	goto	u2255
  3325     01A0  0831               	movf	??___fldiv+3,w
  3326     01A1  00AD               	movwf	___fldiv@b+3
  3327     01A2  0830               	movf	??___fldiv+2,w
  3328     01A3  00AC               	movwf	___fldiv@b+2
  3329     01A4  082F               	movf	??___fldiv+1,w
  3330     01A5  00AB               	movwf	___fldiv@b+1
  3331     01A6  082E               	movf	??___fldiv,w
  3332     01A7  00AA               	movwf	___fldiv@b
  3333     01A8                     l2057:
  3334     01A8  3001               	movlw	1
  3335     01A9  07B8               	addwf	___fldiv@new_exp,f
  3336     01AA  1803               	skipnc
  3337     01AB  0AB9               	incf	___fldiv@new_exp+1,f
  3338     01AC  3000               	movlw	0
  3339     01AD  07B9               	addwf	___fldiv@new_exp+1,f
  3340     01AE                     l2059:
  3341     01AE  0839               	movf	___fldiv@new_exp+1,w
  3342     01AF  3A80               	xorlw	128
  3343     01B0  00FF               	movwf	btemp+1
  3344     01B1  3080               	movlw	128
  3345     01B2  027F               	subwf	btemp+1,w
  3346     01B3  1D03               	skipz
  3347     01B4  29B7               	goto	u2265
  3348     01B5  30FF               	movlw	255
  3349     01B6  0238               	subwf	___fldiv@new_exp,w
  3350     01B7                     u2265:
  3351     01B7  1C03               	skipc
  3352     01B8  29BA               	goto	u2261
  3353     01B9  29BB               	goto	u2260
  3354     01BA                     u2261:
  3355     01BA  29C9               	goto	l2063
  3356     01BB                     u2260:
  3357     01BB                     l2061:
  3358     01BB  30FF               	movlw	255
  3359     01BC  1283               	bcf	3,5	;RP0=0, select bank0
  3360     01BD  1303               	bcf	3,6	;RP1=0, select bank0
  3361     01BE  00B8               	movwf	___fldiv@new_exp
  3362     01BF  3000               	movlw	0
  3363     01C0  00B9               	movwf	___fldiv@new_exp+1
  3364     01C1  3000               	movlw	0
  3365     01C2  00AD               	movwf	___fldiv@b+3
  3366     01C3  3000               	movlw	0
  3367     01C4  00AC               	movwf	___fldiv@b+2
  3368     01C5  3000               	movlw	0
  3369     01C6  00AB               	movwf	___fldiv@b+1
  3370     01C7  3000               	movlw	0
  3371     01C8  00AA               	movwf	___fldiv@b
  3372     01C9                     l2063:
  3373     01C9  1283               	bcf	3,5	;RP0=0, select bank0
  3374     01CA  1303               	bcf	3,6	;RP1=0, select bank0
  3375     01CB  0839               	movf	___fldiv@new_exp+1,w
  3376     01CC  3A80               	xorlw	128
  3377     01CD  00FF               	movwf	btemp+1
  3378     01CE  3080               	movlw	128
  3379     01CF  027F               	subwf	btemp+1,w
  3380     01D0  1D03               	skipz
  3381     01D1  29D4               	goto	u2275
  3382     01D2  3001               	movlw	1
  3383     01D3  0238               	subwf	___fldiv@new_exp,w
  3384     01D4                     u2275:
  3385     01D4  1803               	skipnc
  3386     01D5  29D7               	goto	u2271
  3387     01D6  29D8               	goto	u2270
  3388     01D7                     u2271:
  3389     01D7  29E5               	goto	l818
  3390     01D8                     u2270:
  3391     01D8                     l2065:
  3392     01D8  1283               	bcf	3,5	;RP0=0, select bank0
  3393     01D9  1303               	bcf	3,6	;RP1=0, select bank0
  3394     01DA  01B8               	clrf	___fldiv@new_exp
  3395     01DB  01B9               	clrf	___fldiv@new_exp+1
  3396     01DC                     l2067:
  3397     01DC  3000               	movlw	0
  3398     01DD  00AD               	movwf	___fldiv@b+3
  3399     01DE  3000               	movlw	0
  3400     01DF  00AC               	movwf	___fldiv@b+2
  3401     01E0  3000               	movlw	0
  3402     01E1  00AB               	movwf	___fldiv@b+1
  3403     01E2  3000               	movlw	0
  3404     01E3  00AA               	movwf	___fldiv@b
  3405     01E4                     l2069:
  3406     01E4  01B7               	clrf	___fldiv@sign
  3407     01E5                     l818:
  3408     01E5  1283               	bcf	3,5	;RP0=0, select bank0
  3409     01E6  1303               	bcf	3,6	;RP1=0, select bank0
  3410     01E7  0838               	movf	___fldiv@new_exp,w
  3411     01E8  00BE               	movwf	___fldiv@bexp
  3412     01E9                     l2071:
  3413     01E9  1C3E               	btfss	___fldiv@bexp,0
  3414     01EA  29EC               	goto	u2281
  3415     01EB  29ED               	goto	u2280
  3416     01EC                     u2281:
  3417     01EC  29EF               	goto	l2075
  3418     01ED                     u2280:
  3419     01ED                     l2073:
  3420     01ED  17AC               	bsf	___fldiv@b+2,7
  3421     01EE  29F3               	goto	l2077
  3422     01EF                     l2075:
  3423     01EF  307F               	movlw	127
  3424     01F0  00FF               	movwf	btemp+1
  3425     01F1  087F               	movf	btemp+1,w
  3426     01F2  05AC               	andwf	___fldiv@b+2,f
  3427     01F3                     l2077:
  3428     01F3  083E               	movf	___fldiv@bexp,w
  3429     01F4  00AE               	movwf	??___fldiv
  3430     01F5  1003               	clrc
  3431     01F6  0C2E               	rrf	??___fldiv,w
  3432     01F7  00AD               	movwf	___fldiv@b+3
  3433     01F8  2895               	goto	l1981
  3434     01F9                     l798:
  3435     01F9  0008               	return
  3436     01FA                     __end_of___fldiv:
  3437                           
  3438                           	psect	text12
  3439     0E20                     __ptext12:	
  3440 ;; *************** function _PWM_Init *****************
  3441 ;; Defined at:
  3442 ;;		line 148 in file "main.c"
  3443 ;; Parameters:    Size  Location     Type
  3444 ;;		None
  3445 ;; Auto vars:     Size  Location     Type
  3446 ;;		None
  3447 ;; Return value:  Size  Location     Type
  3448 ;;                  1    wreg      void 
  3449 ;; Registers used:
  3450 ;;		wreg, status,2
  3451 ;; Tracked objects:
  3452 ;;		On entry : 0/0
  3453 ;;		On exit  : 0/0
  3454 ;;		Unchanged: 0/0
  3455 ;; Data sizes:     COMMON   BANK0   BANK1   BANK3   BANK2
  3456 ;;      Params:         0       0       0       0       0
  3457 ;;      Locals:         0       0       0       0       0
  3458 ;;      Temps:          0       0       0       0       0
  3459 ;;      Totals:         0       0       0       0       0
  3460 ;;Total ram usage:        0 bytes
  3461 ;; Hardware stack levels used: 1
  3462 ;; Hardware stack levels required when called: 1
  3463 ;; This function calls:
  3464 ;;		Nothing
  3465 ;; This function is called by:
  3466 ;;		_main
  3467 ;; This function uses a non-reentrant model
  3468 ;;
  3469                           
  3470     0E20                     _PWM_Init:	
  3471                           ;psect for function _PWM_Init
  3472                           
  3473     0E20                     l2169:	
  3474                           ;incstack = 0
  3475                           ; Regs used in _PWM_Init: [wreg+status,2]
  3476                           
  3477                           
  3478                           ;main.c: 149:     TRISC2 = 0;
  3479     0E20  1683               	bsf	3,5	;RP0=1, select bank1
  3480     0E21  1303               	bcf	3,6	;RP1=0, select bank1
  3481     0E22  1107               	bcf	7,2	;volatile
  3482     0E23                     l2171:
  3483                           
  3484                           ;main.c: 150:     PR2 = 249;
  3485     0E23  30F9               	movlw	249
  3486     0E24  0092               	movwf	18	;volatile
  3487                           
  3488                           ;main.c: 151:     T2CON = 0b00000111;
  3489     0E25  3007               	movlw	7
  3490     0E26  1283               	bcf	3,5	;RP0=0, select bank0
  3491     0E27  1303               	bcf	3,6	;RP1=0, select bank0
  3492     0E28  0092               	movwf	18	;volatile
  3493                           
  3494                           ;main.c: 152:     CCP1CON = 0b00001100;
  3495     0E29  300C               	movlw	12
  3496     0E2A  0097               	movwf	23	;volatile
  3497     0E2B                     l2173:
  3498                           
  3499                           ;main.c: 153:     CCPR1L = 0;
  3500     0E2B  0195               	clrf	21	;volatile
  3501     0E2C                     l215:
  3502     0E2C  0008               	return
  3503     0E2D                     __end_of_PWM_Init:
  3504                           
  3505                           	psect	text13
  3506     0680                     __ptext13:	
  3507 ;; *************** function _MOVE *****************
  3508 ;; Defined at:
  3509 ;;		line 301 in file "main.c"
  3510 ;; Parameters:    Size  Location     Type
  3511 ;;		None
  3512 ;; Auto vars:     Size  Location     Type
  3513 ;;		None
  3514 ;; Return value:  Size  Location     Type
  3515 ;;                  1    wreg      void 
  3516 ;; Registers used:
  3517 ;;		wreg, status,2, status,0, btemp+1, pclath, cstack
  3518 ;; Tracked objects:
  3519 ;;		On entry : 0/0
  3520 ;;		On exit  : 0/0
  3521 ;;		Unchanged: 0/0
  3522 ;; Data sizes:     COMMON   BANK0   BANK1   BANK3   BANK2
  3523 ;;      Params:         0       0       0       0       0
  3524 ;;      Locals:         0       0       0       0       0
  3525 ;;      Temps:          0       0       0       0       0
  3526 ;;      Totals:         0       0       0       0       0
  3527 ;;Total ram usage:        0 bytes
  3528 ;; Hardware stack levels used: 1
  3529 ;; Hardware stack levels required when called: 4
  3530 ;; This function calls:
  3531 ;;		_Backward
  3532 ;;		_Forward
  3533 ;;		_Left
  3534 ;;		_Right
  3535 ;;		_Stop
  3536 ;;		_UART_get_char
  3537 ;;		_closeFridge
  3538 ;;		_openFridge
  3539 ;; This function is called by:
  3540 ;;		_main
  3541 ;; This function uses a non-reentrant model
  3542 ;;
  3543                           
  3544     0680                     _MOVE:	
  3545                           ;psect for function _MOVE
  3546                           
  3547     0680                     l2679:	
  3548                           ;incstack = 0
  3549                           ; Regs used in _MOVE: [wreg+status,2+status,0+btemp+1+pclath+cstack]
  3550                           
  3551                           
  3552                           ;main.c: 302:     get_value = UART_get_char();
  3553     0680  120A  158A  262D  120A  118A  	fcall	_UART_get_char
  3554     0685  1283               	bcf	3,5	;RP0=0, select bank0
  3555     0686  1303               	bcf	3,6	;RP1=0, select bank0
  3556     0687  00E0               	movwf	_get_value
  3557     0688                     l2681:
  3558                           
  3559                           ;main.c: 303:     if (get_value == 'F' && no_forward == 0)
  3560     0688  3046               	movlw	70
  3561     0689  0660               	xorwf	_get_value,w
  3562     068A  1D03               	btfss	3,2
  3563     068B  2E8D               	goto	u3261
  3564     068C  2E8E               	goto	u3260
  3565     068D                     u3261:
  3566     068D  2E9A               	goto	l2689
  3567     068E                     u3260:
  3568     068E                     l2683:
  3569     068E  085E               	movf	_no_forward,w
  3570     068F  1D03               	btfss	3,2
  3571     0690  2E92               	goto	u3271
  3572     0691  2E93               	goto	u3270
  3573     0692                     u3271:
  3574     0692  2E9A               	goto	l2689
  3575     0693                     u3270:
  3576     0693                     l2685:
  3577                           
  3578                           ;main.c: 304:     {;main.c: 305:         status = 'f';
  3579     0693  3066               	movlw	102
  3580     0694  00FB               	movwf	_status
  3581     0695                     l2687:
  3582                           
  3583                           ;main.c: 306:         Forward();
  3584     0695  120A  158A  25E4  120A  118A  	fcall	_Forward
  3585     069A                     l2689:
  3586                           
  3587                           ;main.c: 308:     if (get_value == 'B' && no_backward == 0)
  3588     069A  3042               	movlw	66
  3589     069B  1283               	bcf	3,5	;RP0=0, select bank0
  3590     069C  1303               	bcf	3,6	;RP1=0, select bank0
  3591     069D  0660               	xorwf	_get_value,w
  3592     069E  1D03               	btfss	3,2
  3593     069F  2EA1               	goto	u3281
  3594     06A0  2EA2               	goto	u3280
  3595     06A1                     u3281:
  3596     06A1  2EAE               	goto	l2697
  3597     06A2                     u3280:
  3598     06A2                     l2691:
  3599     06A2  085F               	movf	_no_backward,w
  3600     06A3  1D03               	btfss	3,2
  3601     06A4  2EA6               	goto	u3291
  3602     06A5  2EA7               	goto	u3290
  3603     06A6                     u3291:
  3604     06A6  2EAE               	goto	l2697
  3605     06A7                     u3290:
  3606     06A7                     l2693:
  3607                           
  3608                           ;main.c: 309:     {;main.c: 310:         status = 'b';
  3609     06A7  3062               	movlw	98
  3610     06A8  00FB               	movwf	_status
  3611     06A9                     l2695:
  3612                           
  3613                           ;main.c: 311:         Backward();
  3614     06A9  120A  158A  25DD  120A  118A  	fcall	_Backward
  3615     06AE                     l2697:
  3616                           
  3617                           ;main.c: 313:     if (get_value == 'R') {
  3618     06AE  3052               	movlw	82
  3619     06AF  1283               	bcf	3,5	;RP0=0, select bank0
  3620     06B0  1303               	bcf	3,6	;RP1=0, select bank0
  3621     06B1  0660               	xorwf	_get_value,w
  3622     06B2  1D03               	btfss	3,2
  3623     06B3  2EB5               	goto	u3301
  3624     06B4  2EB6               	goto	u3300
  3625     06B5                     u3301:
  3626     06B5  2EBD               	goto	l2703
  3627     06B6                     u3300:
  3628     06B6                     l2699:
  3629                           
  3630                           ;main.c: 314:         status = 'r';
  3631     06B6  3072               	movlw	114
  3632     06B7  00FB               	movwf	_status
  3633     06B8                     l2701:
  3634                           
  3635                           ;main.c: 315:         Right();
  3636     06B8  120A  158A  25F2  120A  118A  	fcall	_Right
  3637     06BD                     l2703:
  3638                           
  3639                           ;main.c: 317:     if (get_value == 'L') {
  3640     06BD  304C               	movlw	76
  3641     06BE  1283               	bcf	3,5	;RP0=0, select bank0
  3642     06BF  1303               	bcf	3,6	;RP1=0, select bank0
  3643     06C0  0660               	xorwf	_get_value,w
  3644     06C1  1D03               	btfss	3,2
  3645     06C2  2EC4               	goto	u3311
  3646     06C3  2EC5               	goto	u3310
  3647     06C4                     u3311:
  3648     06C4  2ECC               	goto	l2709
  3649     06C5                     u3310:
  3650     06C5                     l2705:
  3651                           
  3652                           ;main.c: 318:         status = 'l';
  3653     06C5  306C               	movlw	108
  3654     06C6  00FB               	movwf	_status
  3655     06C7                     l2707:
  3656                           
  3657                           ;main.c: 319:         Left();
  3658     06C7  120A  158A  25EB  120A  118A  	fcall	_Left
  3659     06CC                     l2709:
  3660                           
  3661                           ;main.c: 321:     if (get_value == 'S') {
  3662     06CC  3053               	movlw	83
  3663     06CD  1283               	bcf	3,5	;RP0=0, select bank0
  3664     06CE  1303               	bcf	3,6	;RP1=0, select bank0
  3665     06CF  0660               	xorwf	_get_value,w
  3666     06D0  1D03               	btfss	3,2
  3667     06D1  2ED3               	goto	u3321
  3668     06D2  2ED4               	goto	u3320
  3669     06D3                     u3321:
  3670     06D3  2EDB               	goto	l2715
  3671     06D4                     u3320:
  3672     06D4                     l2711:
  3673                           
  3674                           ;main.c: 322:         status = 's';
  3675     06D4  3073               	movlw	115
  3676     06D5  00FB               	movwf	_status
  3677     06D6                     l2713:
  3678                           
  3679                           ;main.c: 323:         Stop();
  3680     06D6  120A  158A  25F9  120A  118A  	fcall	_Stop
  3681     06DB                     l2715:
  3682                           
  3683                           ;main.c: 325:     if (get_value == 'M') {
  3684     06DB  304D               	movlw	77
  3685     06DC  1283               	bcf	3,5	;RP0=0, select bank0
  3686     06DD  1303               	bcf	3,6	;RP1=0, select bank0
  3687     06DE  0660               	xorwf	_get_value,w
  3688     06DF  1D03               	btfss	3,2
  3689     06E0  2EE2               	goto	u3331
  3690     06E1  2EE3               	goto	u3330
  3691     06E2                     u3331:
  3692     06E2  2EE8               	goto	l2719
  3693     06E3                     u3330:
  3694     06E3                     l2717:
  3695                           
  3696                           ;main.c: 326:         openFridge();
  3697     06E3  120A  158A  2614  120A  118A  	fcall	_openFridge
  3698     06E8                     l2719:
  3699                           
  3700                           ;main.c: 328:     if (get_value == 'm') {
  3701     06E8  306D               	movlw	109
  3702     06E9  1283               	bcf	3,5	;RP0=0, select bank0
  3703     06EA  1303               	bcf	3,6	;RP1=0, select bank0
  3704     06EB  0660               	xorwf	_get_value,w
  3705     06EC  1D03               	btfss	3,2
  3706     06ED  2EEF               	goto	u3341
  3707     06EE  2EF0               	goto	u3340
  3708     06EF                     u3341:
  3709     06EF  2EF5               	goto	l297
  3710     06F0                     u3340:
  3711     06F0                     l2721:
  3712                           
  3713                           ;main.c: 329:         closeFridge();
  3714     06F0  120A  158A  2608  120A  118A  	fcall	_closeFridge
  3715     06F5                     l297:
  3716     06F5  0008               	return
  3717     06F6                     __end_of_MOVE:
  3718                           
  3719                           	psect	text14
  3720     0E14                     __ptext14:	
  3721 ;; *************** function _openFridge *****************
  3722 ;; Defined at:
  3723 ;;		line 359 in file "main.c"
  3724 ;; Parameters:    Size  Location     Type
  3725 ;;		None
  3726 ;; Auto vars:     Size  Location     Type
  3727 ;;		None
  3728 ;; Return value:  Size  Location     Type
  3729 ;;                  1    wreg      void 
  3730 ;; Registers used:
  3731 ;;		wreg, status,2, status,0, btemp+1, pclath, cstack
  3732 ;; Tracked objects:
  3733 ;;		On entry : 0/0
  3734 ;;		On exit  : 0/0
  3735 ;;		Unchanged: 0/0
  3736 ;; Data sizes:     COMMON   BANK0   BANK1   BANK3   BANK2
  3737 ;;      Params:         0       0       0       0       0
  3738 ;;      Locals:         0       0       0       0       0
  3739 ;;      Temps:          0       0       0       0       0
  3740 ;;      Totals:         0       0       0       0       0
  3741 ;;Total ram usage:        0 bytes
  3742 ;; Hardware stack levels used: 1
  3743 ;; Hardware stack levels required when called: 3
  3744 ;; This function calls:
  3745 ;;		_Set_PWM_Duty
  3746 ;; This function is called by:
  3747 ;;		_MOVE
  3748 ;; This function uses a non-reentrant model
  3749 ;;
  3750                           
  3751     0E14                     _openFridge:	
  3752                           ;psect for function _openFridge
  3753                           
  3754     0E14                     l2489:	
  3755                           ;incstack = 0
  3756                           ; Regs used in _openFridge: [wreg+status,2+status,0+btemp+1+pclath+cstack]
  3757                           
  3758                           
  3759                           ;main.c: 360:     Set_PWM_Duty(3);
  3760     0E14  3003               	movlw	3
  3761     0E15  1283               	bcf	3,5	;RP0=0, select bank0
  3762     0E16  1303               	bcf	3,6	;RP1=0, select bank0
  3763     0E17  00B4               	movwf	Set_PWM_Duty@duty_us
  3764     0E18  3000               	movlw	0
  3765     0E19  00B5               	movwf	Set_PWM_Duty@duty_us+1
  3766     0E1A  120A  118A  258D  120A  158A  	fcall	_Set_PWM_Duty
  3767     0E1F                     l314:
  3768     0E1F  0008               	return
  3769     0E20                     __end_of_openFridge:
  3770                           
  3771                           	psect	text15
  3772     0E08                     __ptext15:	
  3773 ;; *************** function _closeFridge *****************
  3774 ;; Defined at:
  3775 ;;		line 356 in file "main.c"
  3776 ;; Parameters:    Size  Location     Type
  3777 ;;		None
  3778 ;; Auto vars:     Size  Location     Type
  3779 ;;		None
  3780 ;; Return value:  Size  Location     Type
  3781 ;;                  1    wreg      void 
  3782 ;; Registers used:
  3783 ;;		wreg, status,2, status,0, btemp+1, pclath, cstack
  3784 ;; Tracked objects:
  3785 ;;		On entry : 0/0
  3786 ;;		On exit  : 0/0
  3787 ;;		Unchanged: 0/0
  3788 ;; Data sizes:     COMMON   BANK0   BANK1   BANK3   BANK2
  3789 ;;      Params:         0       0       0       0       0
  3790 ;;      Locals:         0       0       0       0       0
  3791 ;;      Temps:          0       0       0       0       0
  3792 ;;      Totals:         0       0       0       0       0
  3793 ;;Total ram usage:        0 bytes
  3794 ;; Hardware stack levels used: 1
  3795 ;; Hardware stack levels required when called: 3
  3796 ;; This function calls:
  3797 ;;		_Set_PWM_Duty
  3798 ;; This function is called by:
  3799 ;;		_main
  3800 ;;		_MOVE
  3801 ;; This function uses a non-reentrant model
  3802 ;;
  3803                           
  3804     0E08                     _closeFridge:	
  3805                           ;psect for function _closeFridge
  3806                           
  3807     0E08                     l2487:	
  3808                           ;incstack = 0
  3809                           ; Regs used in _closeFridge: [wreg+status,2+status,0+btemp+1+pclath+cstack]
  3810                           
  3811                           
  3812                           ;main.c: 357:     Set_PWM_Duty(6);
  3813     0E08  3006               	movlw	6
  3814     0E09  1283               	bcf	3,5	;RP0=0, select bank0
  3815     0E0A  1303               	bcf	3,6	;RP1=0, select bank0
  3816     0E0B  00B4               	movwf	Set_PWM_Duty@duty_us
  3817     0E0C  3000               	movlw	0
  3818     0E0D  00B5               	movwf	Set_PWM_Duty@duty_us+1
  3819     0E0E  120A  118A  258D  120A  158A  	fcall	_Set_PWM_Duty
  3820     0E13                     l311:
  3821     0E13  0008               	return
  3822     0E14                     __end_of_closeFridge:
  3823                           
  3824                           	psect	text16
  3825     058D                     __ptext16:	
  3826 ;; *************** function _Set_PWM_Duty *****************
  3827 ;; Defined at:
  3828 ;;		line 168 in file "main.c"
  3829 ;; Parameters:    Size  Location     Type
  3830 ;;  duty_us         2   20[BANK0 ] unsigned int 
  3831 ;; Auto vars:     Size  Location     Type
  3832 ;;  duty            2   25[BANK0 ] unsigned int 
  3833 ;; Return value:  Size  Location     Type
  3834 ;;                  1    wreg      void 
  3835 ;; Registers used:
  3836 ;;		wreg, status,2, status,0, btemp+1, pclath, cstack
  3837 ;; Tracked objects:
  3838 ;;		On entry : 0/0
  3839 ;;		On exit  : 0/0
  3840 ;;		Unchanged: 0/0
  3841 ;; Data sizes:     COMMON   BANK0   BANK1   BANK3   BANK2
  3842 ;;      Params:         0       2       0       0       0
  3843 ;;      Locals:         0       2       0       0       0
  3844 ;;      Temps:          0       3       0       0       0
  3845 ;;      Totals:         0       7       0       0       0
  3846 ;;Total ram usage:        7 bytes
  3847 ;; Hardware stack levels used: 1
  3848 ;; Hardware stack levels required when called: 2
  3849 ;; This function calls:
  3850 ;;		___aldiv
  3851 ;;		___lmul
  3852 ;;		___wmul
  3853 ;; This function is called by:
  3854 ;;		_closeFridge
  3855 ;;		_openFridge
  3856 ;; This function uses a non-reentrant model
  3857 ;;
  3858                           
  3859     058D                     _Set_PWM_Duty:	
  3860                           ;psect for function _Set_PWM_Duty
  3861                           
  3862     058D                     l2479:	
  3863                           ;incstack = 0
  3864                           ; Regs used in _Set_PWM_Duty: [wreg+status,2+status,0+btemp+1+pclath+cstack]
  3865                           
  3866                           
  3867                           ;main.c: 169:     unsigned int duty = (duty_us * (4000000 / 4)) / (16 * (PR2 + 1) * 1000
      +                          );
  3868     058D  30E8               	movlw	232
  3869     058E  00F4               	movwf	___wmul@multiplicand
  3870     058F  3003               	movlw	3
  3871     0590  00F5               	movwf	___wmul@multiplicand+1
  3872     0591  1683               	bsf	3,5	;RP0=1, select bank1
  3873     0592  1303               	bcf	3,6	;RP1=0, select bank1
  3874     0593  0812               	movf	18,w	;volatile
  3875     0594  1283               	bcf	3,5	;RP0=0, select bank0
  3876     0595  1303               	bcf	3,6	;RP1=0, select bank0
  3877     0596  00B6               	movwf	??_Set_PWM_Duty
  3878     0597  01B7               	clrf	??_Set_PWM_Duty+1
  3879     0598  0EB6               	swapf	??_Set_PWM_Duty,f
  3880     0599  0EB7               	swapf	??_Set_PWM_Duty+1,f
  3881     059A  30F0               	movlw	240
  3882     059B  05B7               	andwf	??_Set_PWM_Duty+1,f
  3883     059C  0836               	movf	??_Set_PWM_Duty,w
  3884     059D  390F               	andlw	15
  3885     059E  04B7               	iorwf	??_Set_PWM_Duty+1,f
  3886     059F  30F0               	movlw	240
  3887     05A0  05B6               	andwf	??_Set_PWM_Duty,f
  3888     05A1  0836               	movf	??_Set_PWM_Duty,w
  3889     05A2  3E10               	addlw	16
  3890     05A3  00F2               	movwf	___wmul@multiplier
  3891     05A4  0837               	movf	??_Set_PWM_Duty+1,w
  3892     05A5  1803               	skipnc
  3893     05A6  3E01               	addlw	1
  3894     05A7  3E00               	addlw	0
  3895     05A8  00F3               	movwf	___wmul@multiplier+1
  3896     05A9  120A  158A  26B4  120A  118A  	fcall	___wmul
  3897     05AE  0872               	movf	?___wmul,w
  3898     05AF  1283               	bcf	3,5	;RP0=0, select bank0
  3899     05B0  1303               	bcf	3,6	;RP1=0, select bank0
  3900     05B1  00A5               	movwf	___aldiv@divisor
  3901     05B2  0873               	movf	?___wmul+1,w
  3902     05B3  00A6               	movwf	___aldiv@divisor+1
  3903     05B4  3000               	movlw	0
  3904     05B5  1BA6               	btfsc	___aldiv@divisor+1,7
  3905     05B6  30FF               	movlw	255
  3906     05B7  00A7               	movwf	___aldiv@divisor+2
  3907     05B8  00A8               	movwf	___aldiv@divisor+3
  3908     05B9  0834               	movf	Set_PWM_Duty@duty_us,w
  3909     05BA  00F2               	movwf	___lmul@multiplier
  3910     05BB  0835               	movf	Set_PWM_Duty@duty_us+1,w
  3911     05BC  00F3               	movwf	___lmul@multiplier+1
  3912     05BD  01F4               	clrf	___lmul@multiplier+2
  3913     05BE  01F5               	clrf	___lmul@multiplier+3
  3914     05BF  3000               	movlw	0
  3915     05C0  00F9               	movwf	___lmul@multiplicand+3
  3916     05C1  300F               	movlw	15
  3917     05C2  00F8               	movwf	___lmul@multiplicand+2
  3918     05C3  3042               	movlw	66
  3919     05C4  00F7               	movwf	___lmul@multiplicand+1
  3920     05C5  3040               	movlw	64
  3921     05C6  00F6               	movwf	___lmul@multiplicand
  3922     05C7  120A  118A  27AA  120A  118A  	fcall	___lmul
  3923     05CC  0875               	movf	?___lmul+3,w
  3924     05CD  1283               	bcf	3,5	;RP0=0, select bank0
  3925     05CE  1303               	bcf	3,6	;RP1=0, select bank0
  3926     05CF  00AC               	movwf	___aldiv@dividend+3
  3927     05D0  0874               	movf	?___lmul+2,w
  3928     05D1  00AB               	movwf	___aldiv@dividend+2
  3929     05D2  0873               	movf	?___lmul+1,w
  3930     05D3  00AA               	movwf	___aldiv@dividend+1
  3931     05D4  0872               	movf	?___lmul,w
  3932     05D5  00A9               	movwf	___aldiv@dividend
  3933     05D6  120A  118A  24F0  120A  118A  	fcall	___aldiv
  3934     05DB  1283               	bcf	3,5	;RP0=0, select bank0
  3935     05DC  1303               	bcf	3,6	;RP1=0, select bank0
  3936     05DD  0826               	movf	?___aldiv+1,w
  3937     05DE  00BA               	movwf	Set_PWM_Duty@duty+1
  3938     05DF  0825               	movf	?___aldiv,w
  3939     05E0  00B9               	movwf	Set_PWM_Duty@duty
  3940     05E1                     l2481:
  3941                           
  3942                           ;main.c: 170:     CCPR1L = duty >> 2;
  3943     05E1  083A               	movf	Set_PWM_Duty@duty+1,w
  3944     05E2  00B7               	movwf	??_Set_PWM_Duty+1
  3945     05E3  0839               	movf	Set_PWM_Duty@duty,w
  3946     05E4  00B6               	movwf	??_Set_PWM_Duty
  3947     05E5  1003               	clrc
  3948     05E6  0CB7               	rrf	??_Set_PWM_Duty+1,f
  3949     05E7  0CB6               	rrf	??_Set_PWM_Duty,f
  3950     05E8  1003               	clrc
  3951     05E9  0CB7               	rrf	??_Set_PWM_Duty+1,f
  3952     05EA  0CB6               	rrf	??_Set_PWM_Duty,f
  3953     05EB  0836               	movf	??_Set_PWM_Duty,w
  3954     05EC  0095               	movwf	21	;volatile
  3955     05ED                     l2483:
  3956                           
  3957                           ;main.c: 171:     CCP1CONbits.CCP1X = (duty & 0x02) >> 1;
  3958     05ED  083A               	movf	Set_PWM_Duty@duty+1,w
  3959     05EE  00B7               	movwf	??_Set_PWM_Duty+1
  3960     05EF  0839               	movf	Set_PWM_Duty@duty,w
  3961     05F0  00B6               	movwf	??_Set_PWM_Duty
  3962     05F1  1003               	clrc
  3963     05F2  0CB7               	rrf	??_Set_PWM_Duty+1,f
  3964     05F3  0CB6               	rrf	??_Set_PWM_Duty,f
  3965     05F4  0836               	movf	??_Set_PWM_Duty,w
  3966     05F5  3901               	andlw	1
  3967     05F6  00B8               	movwf	??_Set_PWM_Duty+2
  3968     05F7  0EB8               	swapf	??_Set_PWM_Duty+2,f
  3969     05F8  0DB8               	rlf	??_Set_PWM_Duty+2,f
  3970     05F9  0817               	movf	23,w	;volatile
  3971     05FA  0638               	xorwf	??_Set_PWM_Duty+2,w
  3972     05FB  39DF               	andlw	-33
  3973     05FC  0638               	xorwf	??_Set_PWM_Duty+2,w
  3974     05FD  0097               	movwf	23	;volatile
  3975     05FE                     l2485:
  3976                           
  3977                           ;main.c: 172:     CCP1CONbits.CCP1Y = duty & 0x01;
  3978     05FE  0839               	movf	Set_PWM_Duty@duty,w
  3979     05FF  3901               	andlw	1
  3980     0600  00B6               	movwf	??_Set_PWM_Duty
  3981     0601  0EB6               	swapf	??_Set_PWM_Duty,f
  3982     0602  0817               	movf	23,w	;volatile
  3983     0603  0636               	xorwf	??_Set_PWM_Duty,w
  3984     0604  39EF               	andlw	-17
  3985     0605  0636               	xorwf	??_Set_PWM_Duty,w
  3986     0606  0097               	movwf	23	;volatile
  3987     0607                     l221:
  3988     0607  0008               	return
  3989     0608                     __end_of_Set_PWM_Duty:
  3990                           
  3991                           	psect	text17
  3992     0EB4                     __ptext17:	
  3993 ;; *************** function ___wmul *****************
  3994 ;; Defined at:
  3995 ;;		line 15 in file "C:\Program Files\Microchip\xc8\v2.46\pic\sources\c99\common\Umul16.c"
  3996 ;; Parameters:    Size  Location     Type
  3997 ;;  multiplier      2    2[COMMON] unsigned int 
  3998 ;;  multiplicand    2    4[COMMON] unsigned int 
  3999 ;; Auto vars:     Size  Location     Type
  4000 ;;  product         2    6[COMMON] unsigned int 
  4001 ;; Return value:  Size  Location     Type
  4002 ;;                  2    2[COMMON] unsigned int 
  4003 ;; Registers used:
  4004 ;;		wreg, status,2, status,0
  4005 ;; Tracked objects:
  4006 ;;		On entry : 0/0
  4007 ;;		On exit  : 0/0
  4008 ;;		Unchanged: 0/0
  4009 ;; Data sizes:     COMMON   BANK0   BANK1   BANK3   BANK2
  4010 ;;      Params:         4       0       0       0       0
  4011 ;;      Locals:         2       0       0       0       0
  4012 ;;      Temps:          0       0       0       0       0
  4013 ;;      Totals:         6       0       0       0       0
  4014 ;;Total ram usage:        6 bytes
  4015 ;; Hardware stack levels used: 1
  4016 ;; Hardware stack levels required when called: 1
  4017 ;; This function calls:
  4018 ;;		Nothing
  4019 ;; This function is called by:
  4020 ;;		_Set_PWM_Duty
  4021 ;;		_Set_LED_DutyCycle
  4022 ;; This function uses a non-reentrant model
  4023 ;;
  4024                           
  4025     0EB4                     ___wmul:	
  4026                           ;psect for function ___wmul
  4027                           
  4028     0EB4                     l1667:	
  4029                           ;incstack = 0
  4030                           ; Regs used in ___wmul: [wreg+status,2+status,0]
  4031                           
  4032     0EB4  01F6               	clrf	___wmul@product
  4033     0EB5  01F7               	clrf	___wmul@product+1
  4034     0EB6                     l1669:
  4035     0EB6  1C72               	btfss	___wmul@multiplier,0
  4036     0EB7  2EB9               	goto	u1411
  4037     0EB8  2EBA               	goto	u1410
  4038     0EB9                     u1411:
  4039     0EB9  2EC0               	goto	l439
  4040     0EBA                     u1410:
  4041     0EBA                     l1671:
  4042     0EBA  0874               	movf	___wmul@multiplicand,w
  4043     0EBB  07F6               	addwf	___wmul@product,f
  4044     0EBC  1803               	skipnc
  4045     0EBD  0AF7               	incf	___wmul@product+1,f
  4046     0EBE  0875               	movf	___wmul@multiplicand+1,w
  4047     0EBF  07F7               	addwf	___wmul@product+1,f
  4048     0EC0                     l439:
  4049     0EC0  3001               	movlw	1
  4050     0EC1                     u1425:
  4051     0EC1  1003               	clrc
  4052     0EC2  0DF4               	rlf	___wmul@multiplicand,f
  4053     0EC3  0DF5               	rlf	___wmul@multiplicand+1,f
  4054     0EC4  3EFF               	addlw	-1
  4055     0EC5  1D03               	skipz
  4056     0EC6  2EC1               	goto	u1425
  4057     0EC7                     l1673:
  4058     0EC7  3001               	movlw	1
  4059     0EC8                     u1435:
  4060     0EC8  1003               	clrc
  4061     0EC9  0CF3               	rrf	___wmul@multiplier+1,f
  4062     0ECA  0CF2               	rrf	___wmul@multiplier,f
  4063     0ECB  3EFF               	addlw	-1
  4064     0ECC  1D03               	skipz
  4065     0ECD  2EC8               	goto	u1435
  4066     0ECE                     l1675:
  4067     0ECE  0872               	movf	___wmul@multiplier,w
  4068     0ECF  0473               	iorwf	___wmul@multiplier+1,w
  4069     0ED0  1D03               	btfss	3,2
  4070     0ED1  2ED3               	goto	u1441
  4071     0ED2  2ED4               	goto	u1440
  4072     0ED3                     u1441:
  4073     0ED3  2EB6               	goto	l1669
  4074     0ED4                     u1440:
  4075     0ED4                     l1677:
  4076     0ED4  0877               	movf	___wmul@product+1,w
  4077     0ED5  00F3               	movwf	?___wmul+1
  4078     0ED6  0876               	movf	___wmul@product,w
  4079     0ED7  00F2               	movwf	?___wmul
  4080     0ED8                     l441:
  4081     0ED8  0008               	return
  4082     0ED9                     __end_of___wmul:
  4083                           
  4084                           	psect	text18
  4085     07AA                     __ptext18:	
  4086 ;; *************** function ___lmul *****************
  4087 ;; Defined at:
  4088 ;;		line 15 in file "C:\Program Files\Microchip\xc8\v2.46\pic\sources\c99\common\Umul32.c"
  4089 ;; Parameters:    Size  Location     Type
  4090 ;;  multiplier      4    2[COMMON] unsigned long 
  4091 ;;  multiplicand    4    6[COMMON] unsigned long 
  4092 ;; Auto vars:     Size  Location     Type
  4093 ;;  product         4    1[BANK0 ] unsigned long 
  4094 ;; Return value:  Size  Location     Type
  4095 ;;                  4    2[COMMON] unsigned long 
  4096 ;; Registers used:
  4097 ;;		wreg, status,2, status,0
  4098 ;; Tracked objects:
  4099 ;;		On entry : 0/0
  4100 ;;		On exit  : 0/0
  4101 ;;		Unchanged: 0/0
  4102 ;; Data sizes:     COMMON   BANK0   BANK1   BANK3   BANK2
  4103 ;;      Params:         8       0       0       0       0
  4104 ;;      Locals:         0       4       0       0       0
  4105 ;;      Temps:          0       1       0       0       0
  4106 ;;      Totals:         8       5       0       0       0
  4107 ;;Total ram usage:       13 bytes
  4108 ;; Hardware stack levels used: 1
  4109 ;; Hardware stack levels required when called: 1
  4110 ;; This function calls:
  4111 ;;		Nothing
  4112 ;; This function is called by:
  4113 ;;		_Set_PWM_Duty
  4114 ;; This function uses a non-reentrant model
  4115 ;;
  4116                           
  4117     07AA                     ___lmul:	
  4118                           ;psect for function ___lmul
  4119                           
  4120     07AA                     l2423:	
  4121                           ;incstack = 0
  4122                           ; Regs used in ___lmul: [wreg+status,2+status,0]
  4123                           
  4124     07AA  3000               	movlw	0
  4125     07AB  1283               	bcf	3,5	;RP0=0, select bank0
  4126     07AC  1303               	bcf	3,6	;RP1=0, select bank0
  4127     07AD  00A4               	movwf	___lmul@product+3
  4128     07AE  3000               	movlw	0
  4129     07AF  00A3               	movwf	___lmul@product+2
  4130     07B0  3000               	movlw	0
  4131     07B1  00A2               	movwf	___lmul@product+1
  4132     07B2  3000               	movlw	0
  4133     07B3  00A1               	movwf	___lmul@product
  4134     07B4                     l2425:
  4135     07B4  1C72               	btfss	___lmul@multiplier,0
  4136     07B5  2FB7               	goto	u2771
  4137     07B6  2FB8               	goto	u2770
  4138     07B7                     u2771:
  4139     07B7  2FCF               	goto	l2429
  4140     07B8                     u2770:
  4141     07B8                     l2427:
  4142     07B8  0876               	movf	___lmul@multiplicand,w
  4143     07B9  07A1               	addwf	___lmul@product,f
  4144     07BA  0877               	movf	___lmul@multiplicand+1,w
  4145     07BB  1103               	clrz
  4146     07BC  1803               	skipnc
  4147     07BD  3E01               	addlw	1
  4148     07BE  1903               	skipnz
  4149     07BF  2FC1               	goto	u2781
  4150     07C0  07A2               	addwf	___lmul@product+1,f
  4151     07C1                     u2781:
  4152     07C1  0878               	movf	___lmul@multiplicand+2,w
  4153     07C2  1103               	clrz
  4154     07C3  1803               	skipnc
  4155     07C4  3E01               	addlw	1
  4156     07C5  1903               	skipnz
  4157     07C6  2FC8               	goto	u2782
  4158     07C7  07A3               	addwf	___lmul@product+2,f
  4159     07C8                     u2782:
  4160     07C8  0879               	movf	___lmul@multiplicand+3,w
  4161     07C9  1103               	clrz
  4162     07CA  1803               	skipnc
  4163     07CB  3E01               	addlw	1
  4164     07CC  1903               	skipnz
  4165     07CD  2FCF               	goto	u2783
  4166     07CE  07A4               	addwf	___lmul@product+3,f
  4167     07CF                     u2783:
  4168     07CF                     l2429:
  4169     07CF  3001               	movlw	1
  4170     07D0  00A0               	movwf	??___lmul
  4171     07D1                     u2795:
  4172     07D1  1003               	clrc
  4173     07D2  0DF6               	rlf	___lmul@multiplicand,f
  4174     07D3  0DF7               	rlf	___lmul@multiplicand+1,f
  4175     07D4  0DF8               	rlf	___lmul@multiplicand+2,f
  4176     07D5  0DF9               	rlf	___lmul@multiplicand+3,f
  4177     07D6  0BA0               	decfsz	??___lmul,f
  4178     07D7  2FD1               	goto	u2795
  4179     07D8                     l2431:
  4180     07D8  3001               	movlw	1
  4181     07D9                     u2805:
  4182     07D9  1003               	clrc
  4183     07DA  0CF5               	rrf	___lmul@multiplier+3,f
  4184     07DB  0CF4               	rrf	___lmul@multiplier+2,f
  4185     07DC  0CF3               	rrf	___lmul@multiplier+1,f
  4186     07DD  0CF2               	rrf	___lmul@multiplier,f
  4187     07DE  3EFF               	addlw	-1
  4188     07DF  1D03               	skipz
  4189     07E0  2FD9               	goto	u2805
  4190     07E1  0875               	movf	___lmul@multiplier+3,w
  4191     07E2  0474               	iorwf	___lmul@multiplier+2,w
  4192     07E3  0473               	iorwf	___lmul@multiplier+1,w
  4193     07E4  0472               	iorwf	___lmul@multiplier,w
  4194     07E5  1D03               	skipz
  4195     07E6  2FE8               	goto	u2811
  4196     07E7  2FE9               	goto	u2810
  4197     07E8                     u2811:
  4198     07E8  2FB4               	goto	l2425
  4199     07E9                     u2810:
  4200     07E9                     l2433:
  4201     07E9  0824               	movf	___lmul@product+3,w
  4202     07EA  00F5               	movwf	?___lmul+3
  4203     07EB  0823               	movf	___lmul@product+2,w
  4204     07EC  00F4               	movwf	?___lmul+2
  4205     07ED  0822               	movf	___lmul@product+1,w
  4206     07EE  00F3               	movwf	?___lmul+1
  4207     07EF  0821               	movf	___lmul@product,w
  4208     07F0  00F2               	movwf	?___lmul
  4209     07F1                     l453:
  4210     07F1  0008               	return
  4211     07F2                     __end_of___lmul:
  4212                           
  4213                           	psect	text19
  4214     04F0                     __ptext19:	
  4215 ;; *************** function ___aldiv *****************
  4216 ;; Defined at:
  4217 ;;		line 5 in file "C:\Program Files\Microchip\xc8\v2.46\pic\sources\c99\common\aldiv.c"
  4218 ;; Parameters:    Size  Location     Type
  4219 ;;  divisor         4    5[BANK0 ] long 
  4220 ;;  dividend        4    9[BANK0 ] long 
  4221 ;; Auto vars:     Size  Location     Type
  4222 ;;  quotient        4   16[BANK0 ] long 
  4223 ;;  sign            1   15[BANK0 ] unsigned char 
  4224 ;;  counter         1   14[BANK0 ] unsigned char 
  4225 ;; Return value:  Size  Location     Type
  4226 ;;                  4    5[BANK0 ] long 
  4227 ;; Registers used:
  4228 ;;		wreg, status,2, status,0, btemp+1
  4229 ;; Tracked objects:
  4230 ;;		On entry : 0/0
  4231 ;;		On exit  : 0/0
  4232 ;;		Unchanged: 0/0
  4233 ;; Data sizes:     COMMON   BANK0   BANK1   BANK3   BANK2
  4234 ;;      Params:         0       8       0       0       0
  4235 ;;      Locals:         0       6       0       0       0
  4236 ;;      Temps:          0       1       0       0       0
  4237 ;;      Totals:         0      15       0       0       0
  4238 ;;Total ram usage:       15 bytes
  4239 ;; Hardware stack levels used: 1
  4240 ;; Hardware stack levels required when called: 1
  4241 ;; This function calls:
  4242 ;;		Nothing
  4243 ;; This function is called by:
  4244 ;;		_Set_PWM_Duty
  4245 ;; This function uses a non-reentrant model
  4246 ;;
  4247                           
  4248     04F0                     ___aldiv:	
  4249                           ;psect for function ___aldiv
  4250                           
  4251     04F0                     l2437:	
  4252                           ;incstack = 0
  4253                           ; Regs used in ___aldiv: [wreg+status,2+status,0+btemp+1]
  4254                           
  4255     04F0  1283               	bcf	3,5	;RP0=0, select bank0
  4256     04F1  1303               	bcf	3,6	;RP1=0, select bank0
  4257     04F2  01AF               	clrf	___aldiv@sign
  4258     04F3                     l2439:
  4259     04F3  1FA8               	btfss	___aldiv@divisor+3,7
  4260     04F4  2CF6               	goto	u2821
  4261     04F5  2CF7               	goto	u2820
  4262     04F6                     u2821:
  4263     04F6  2D04               	goto	l504
  4264     04F7                     u2820:
  4265     04F7                     l2441:
  4266     04F7  09A5               	comf	___aldiv@divisor,f
  4267     04F8  09A6               	comf	___aldiv@divisor+1,f
  4268     04F9  09A7               	comf	___aldiv@divisor+2,f
  4269     04FA  09A8               	comf	___aldiv@divisor+3,f
  4270     04FB  0AA5               	incf	___aldiv@divisor,f
  4271     04FC  1903               	skipnz
  4272     04FD  0AA6               	incf	___aldiv@divisor+1,f
  4273     04FE  1903               	skipnz
  4274     04FF  0AA7               	incf	___aldiv@divisor+2,f
  4275     0500  1903               	skipnz
  4276     0501  0AA8               	incf	___aldiv@divisor+3,f
  4277     0502  01AF               	clrf	___aldiv@sign
  4278     0503  0AAF               	incf	___aldiv@sign,f
  4279     0504                     l504:
  4280     0504  1FAC               	btfss	___aldiv@dividend+3,7
  4281     0505  2D07               	goto	u2831
  4282     0506  2D08               	goto	u2830
  4283     0507                     u2831:
  4284     0507  2D17               	goto	l2447
  4285     0508                     u2830:
  4286     0508                     l2443:
  4287     0508  09A9               	comf	___aldiv@dividend,f
  4288     0509  09AA               	comf	___aldiv@dividend+1,f
  4289     050A  09AB               	comf	___aldiv@dividend+2,f
  4290     050B  09AC               	comf	___aldiv@dividend+3,f
  4291     050C  0AA9               	incf	___aldiv@dividend,f
  4292     050D  1903               	skipnz
  4293     050E  0AAA               	incf	___aldiv@dividend+1,f
  4294     050F  1903               	skipnz
  4295     0510  0AAB               	incf	___aldiv@dividend+2,f
  4296     0511  1903               	skipnz
  4297     0512  0AAC               	incf	___aldiv@dividend+3,f
  4298     0513                     l2445:
  4299     0513  3001               	movlw	1
  4300     0514  00FF               	movwf	btemp+1
  4301     0515  087F               	movf	btemp+1,w
  4302     0516  06AF               	xorwf	___aldiv@sign,f
  4303     0517                     l2447:
  4304     0517  3000               	movlw	0
  4305     0518  00B3               	movwf	___aldiv@quotient+3
  4306     0519  3000               	movlw	0
  4307     051A  00B2               	movwf	___aldiv@quotient+2
  4308     051B  3000               	movlw	0
  4309     051C  00B1               	movwf	___aldiv@quotient+1
  4310     051D  3000               	movlw	0
  4311     051E  00B0               	movwf	___aldiv@quotient
  4312     051F                     l2449:
  4313     051F  0828               	movf	___aldiv@divisor+3,w
  4314     0520  0427               	iorwf	___aldiv@divisor+2,w
  4315     0521  0426               	iorwf	___aldiv@divisor+1,w
  4316     0522  0425               	iorwf	___aldiv@divisor,w
  4317     0523  1903               	skipnz
  4318     0524  2D26               	goto	u2841
  4319     0525  2D27               	goto	u2840
  4320     0526                     u2841:
  4321     0526  2D74               	goto	l2471
  4322     0527                     u2840:
  4323     0527                     l2451:
  4324     0527  01AE               	clrf	___aldiv@counter
  4325     0528  0AAE               	incf	___aldiv@counter,f
  4326     0529  2D37               	goto	l2457
  4327     052A                     l2453:
  4328     052A  3001               	movlw	1
  4329     052B  00AD               	movwf	??___aldiv
  4330     052C                     u2855:
  4331     052C  1003               	clrc
  4332     052D  0DA5               	rlf	___aldiv@divisor,f
  4333     052E  0DA6               	rlf	___aldiv@divisor+1,f
  4334     052F  0DA7               	rlf	___aldiv@divisor+2,f
  4335     0530  0DA8               	rlf	___aldiv@divisor+3,f
  4336     0531  0BAD               	decfsz	??___aldiv,f
  4337     0532  2D2C               	goto	u2855
  4338     0533                     l2455:
  4339     0533  3001               	movlw	1
  4340     0534  00FF               	movwf	btemp+1
  4341     0535  087F               	movf	btemp+1,w
  4342     0536  07AE               	addwf	___aldiv@counter,f
  4343     0537                     l2457:
  4344     0537  1FA8               	btfss	___aldiv@divisor+3,7
  4345     0538  2D3A               	goto	u2861
  4346     0539  2D3B               	goto	u2860
  4347     053A                     u2861:
  4348     053A  2D2A               	goto	l2453
  4349     053B                     u2860:
  4350     053B                     l2459:
  4351     053B  3001               	movlw	1
  4352     053C  00AD               	movwf	??___aldiv
  4353     053D                     u2875:
  4354     053D  1003               	clrc
  4355     053E  0DB0               	rlf	___aldiv@quotient,f
  4356     053F  0DB1               	rlf	___aldiv@quotient+1,f
  4357     0540  0DB2               	rlf	___aldiv@quotient+2,f
  4358     0541  0DB3               	rlf	___aldiv@quotient+3,f
  4359     0542  0BAD               	decfsz	??___aldiv,f
  4360     0543  2D3D               	goto	u2875
  4361     0544                     l2461:
  4362     0544  0828               	movf	___aldiv@divisor+3,w
  4363     0545  022C               	subwf	___aldiv@dividend+3,w
  4364     0546  1D03               	skipz
  4365     0547  2D52               	goto	u2885
  4366     0548  0827               	movf	___aldiv@divisor+2,w
  4367     0549  022B               	subwf	___aldiv@dividend+2,w
  4368     054A  1D03               	skipz
  4369     054B  2D52               	goto	u2885
  4370     054C  0826               	movf	___aldiv@divisor+1,w
  4371     054D  022A               	subwf	___aldiv@dividend+1,w
  4372     054E  1D03               	skipz
  4373     054F  2D52               	goto	u2885
  4374     0550  0825               	movf	___aldiv@divisor,w
  4375     0551  0229               	subwf	___aldiv@dividend,w
  4376     0552                     u2885:
  4377     0552  1C03               	skipc
  4378     0553  2D55               	goto	u2881
  4379     0554  2D56               	goto	u2880
  4380     0555                     u2881:
  4381     0555  2D65               	goto	l2467
  4382     0556                     u2880:
  4383     0556                     l2463:
  4384     0556  0825               	movf	___aldiv@divisor,w
  4385     0557  02A9               	subwf	___aldiv@dividend,f
  4386     0558  0826               	movf	___aldiv@divisor+1,w
  4387     0559  1C03               	skipc
  4388     055A  0F26               	incfsz	___aldiv@divisor+1,w
  4389     055B  02AA               	subwf	___aldiv@dividend+1,f
  4390     055C  0827               	movf	___aldiv@divisor+2,w
  4391     055D  1C03               	skipc
  4392     055E  0F27               	incfsz	___aldiv@divisor+2,w
  4393     055F  02AB               	subwf	___aldiv@dividend+2,f
  4394     0560  0828               	movf	___aldiv@divisor+3,w
  4395     0561  1C03               	skipc
  4396     0562  0F28               	incfsz	___aldiv@divisor+3,w
  4397     0563  02AC               	subwf	___aldiv@dividend+3,f
  4398     0564                     l2465:
  4399     0564  1430               	bsf	___aldiv@quotient,0
  4400     0565                     l2467:
  4401     0565  3001               	movlw	1
  4402     0566                     u2895:
  4403     0566  1003               	clrc
  4404     0567  0CA8               	rrf	___aldiv@divisor+3,f
  4405     0568  0CA7               	rrf	___aldiv@divisor+2,f
  4406     0569  0CA6               	rrf	___aldiv@divisor+1,f
  4407     056A  0CA5               	rrf	___aldiv@divisor,f
  4408     056B  3EFF               	addlw	-1
  4409     056C  1D03               	skipz
  4410     056D  2D66               	goto	u2895
  4411     056E                     l2469:
  4412     056E  3001               	movlw	1
  4413     056F  02AE               	subwf	___aldiv@counter,f
  4414     0570  1D03               	btfss	3,2
  4415     0571  2D73               	goto	u2901
  4416     0572  2D74               	goto	u2900
  4417     0573                     u2901:
  4418     0573  2D3B               	goto	l2459
  4419     0574                     u2900:
  4420     0574                     l2471:
  4421     0574  082F               	movf	___aldiv@sign,w
  4422     0575  1903               	btfsc	3,2
  4423     0576  2D78               	goto	u2911
  4424     0577  2D79               	goto	u2910
  4425     0578                     u2911:
  4426     0578  2D84               	goto	l2475
  4427     0579                     u2910:
  4428     0579                     l2473:
  4429     0579  09B0               	comf	___aldiv@quotient,f
  4430     057A  09B1               	comf	___aldiv@quotient+1,f
  4431     057B  09B2               	comf	___aldiv@quotient+2,f
  4432     057C  09B3               	comf	___aldiv@quotient+3,f
  4433     057D  0AB0               	incf	___aldiv@quotient,f
  4434     057E  1903               	skipnz
  4435     057F  0AB1               	incf	___aldiv@quotient+1,f
  4436     0580  1903               	skipnz
  4437     0581  0AB2               	incf	___aldiv@quotient+2,f
  4438     0582  1903               	skipnz
  4439     0583  0AB3               	incf	___aldiv@quotient+3,f
  4440     0584                     l2475:
  4441     0584  0833               	movf	___aldiv@quotient+3,w
  4442     0585  00A8               	movwf	?___aldiv+3
  4443     0586  0832               	movf	___aldiv@quotient+2,w
  4444     0587  00A7               	movwf	?___aldiv+2
  4445     0588  0831               	movf	___aldiv@quotient+1,w
  4446     0589  00A6               	movwf	?___aldiv+1
  4447     058A  0830               	movf	___aldiv@quotient,w
  4448     058B  00A5               	movwf	?___aldiv
  4449     058C                     l514:
  4450     058C  0008               	return
  4451     058D                     __end_of___aldiv:
  4452                           
  4453                           	psect	text20
  4454     0E2D                     __ptext20:	
  4455 ;; *************** function _UART_get_char *****************
  4456 ;; Defined at:
  4457 ;;		line 333 in file "main.c"
  4458 ;; Parameters:    Size  Location     Type
  4459 ;;		None
  4460 ;; Auto vars:     Size  Location     Type
  4461 ;;		None
  4462 ;; Return value:  Size  Location     Type
  4463 ;;                  1    wreg      unsigned char 
  4464 ;; Registers used:
  4465 ;;		wreg
  4466 ;; Tracked objects:
  4467 ;;		On entry : 0/0
  4468 ;;		On exit  : 0/0
  4469 ;;		Unchanged: 0/0
  4470 ;; Data sizes:     COMMON   BANK0   BANK1   BANK3   BANK2
  4471 ;;      Params:         0       0       0       0       0
  4472 ;;      Locals:         0       0       0       0       0
  4473 ;;      Temps:          0       0       0       0       0
  4474 ;;      Totals:         0       0       0       0       0
  4475 ;;Total ram usage:        0 bytes
  4476 ;; Hardware stack levels used: 1
  4477 ;; Hardware stack levels required when called: 1
  4478 ;; This function calls:
  4479 ;;		Nothing
  4480 ;; This function is called by:
  4481 ;;		_MOVE
  4482 ;; This function uses a non-reentrant model
  4483 ;;
  4484                           
  4485     0E2D                     _UART_get_char:	
  4486                           ;psect for function _UART_get_char
  4487                           
  4488     0E2D                     l1773:	
  4489                           ;incstack = 0
  4490                           ; Regs used in _UART_get_char: [wreg]
  4491                           
  4492                           
  4493                           ;main.c: 334:     if (OERR) {
  4494     0E2D  1283               	bcf	3,5	;RP0=0, select bank0
  4495     0E2E  1303               	bcf	3,6	;RP1=0, select bank0
  4496     0E2F  1C98               	btfss	24,1	;volatile
  4497     0E30  2E32               	goto	u1631
  4498     0E31  2E33               	goto	u1630
  4499     0E32                     u1631:
  4500     0E32  2E35               	goto	l300
  4501     0E33                     u1630:
  4502     0E33                     l1775:
  4503                           
  4504                           ;main.c: 335:         CREN = 0;
  4505     0E33  1218               	bcf	24,4	;volatile
  4506                           
  4507                           ;main.c: 336:         CREN = 1;
  4508     0E34  1618               	bsf	24,4	;volatile
  4509     0E35                     l300:	
  4510                           ;main.c: 337:     }
  4511                           
  4512                           
  4513                           ;main.c: 339:     if (!RCIF) {
  4514     0E35  1A8C               	btfsc	12,5	;volatile
  4515     0E36  2E38               	goto	u1641
  4516     0E37  2E39               	goto	u1640
  4517     0E38                     u1641:
  4518     0E38  2E3B               	goto	l1781
  4519     0E39                     u1640:
  4520     0E39                     l1777:
  4521                           
  4522                           ;main.c: 340:         return 0xFF;
  4523     0E39  30FF               	movlw	255
  4524     0E3A  2E3C               	goto	l302
  4525     0E3B                     l1781:
  4526                           
  4527                           ;main.c: 343:     return RCREG;
  4528     0E3B  081A               	movf	26,w	;volatile
  4529     0E3C                     l302:
  4530     0E3C  0008               	return
  4531     0E3D                     __end_of_UART_get_char:
  4532                           
  4533                           	psect	text21
  4534     0DF9                     __ptext21:	
  4535 ;; *************** function _Stop *****************
  4536 ;; Defined at:
  4537 ;;		line 295 in file "main.c"
  4538 ;; Parameters:    Size  Location     Type
  4539 ;;		None
  4540 ;; Auto vars:     Size  Location     Type
  4541 ;;		None
  4542 ;; Return value:  Size  Location     Type
  4543 ;;                  1    wreg      void 
  4544 ;; Registers used:
  4545 ;;		None
  4546 ;; Tracked objects:
  4547 ;;		On entry : 0/0
  4548 ;;		On exit  : 0/0
  4549 ;;		Unchanged: 0/0
  4550 ;; Data sizes:     COMMON   BANK0   BANK1   BANK3   BANK2
  4551 ;;      Params:         0       0       0       0       0
  4552 ;;      Locals:         0       0       0       0       0
  4553 ;;      Temps:          0       0       0       0       0
  4554 ;;      Totals:         0       0       0       0       0
  4555 ;;Total ram usage:        0 bytes
  4556 ;; Hardware stack levels used: 1
  4557 ;; Hardware stack levels required when called: 1
  4558 ;; This function calls:
  4559 ;;		Nothing
  4560 ;; This function is called by:
  4561 ;;		_main
  4562 ;;		_MOVE
  4563 ;; This function uses a non-reentrant model
  4564 ;;
  4565                           
  4566     0DF9                     _Stop:	
  4567                           ;psect for function _Stop
  4568                           
  4569     0DF9                     l1761:	
  4570                           ;incstack = 0
  4571                           ; Regs used in _Stop: []
  4572                           
  4573                           
  4574                           ;main.c: 296:     RB0 = 0;
  4575     0DF9  1283               	bcf	3,5	;RP0=0, select bank0
  4576     0DFA  1303               	bcf	3,6	;RP1=0, select bank0
  4577     0DFB  1006               	bcf	6,0	;volatile
  4578                           
  4579                           ;main.c: 297:     RB1 = 0;
  4580     0DFC  1086               	bcf	6,1	;volatile
  4581                           
  4582                           ;main.c: 298:     RB2 = 0;
  4583     0DFD  1106               	bcf	6,2	;volatile
  4584                           
  4585                           ;main.c: 299:     RB3 = 0;
  4586     0DFE  1186               	bcf	6,3	;volatile
  4587     0DFF                     l287:
  4588     0DFF  0008               	return
  4589     0E00                     __end_of_Stop:
  4590                           
  4591                           	psect	text22
  4592     0DF2                     __ptext22:	
  4593 ;; *************** function _Right *****************
  4594 ;; Defined at:
  4595 ;;		line 281 in file "main.c"
  4596 ;; Parameters:    Size  Location     Type
  4597 ;;		None
  4598 ;; Auto vars:     Size  Location     Type
  4599 ;;		None
  4600 ;; Return value:  Size  Location     Type
  4601 ;;                  1    wreg      void 
  4602 ;; Registers used:
  4603 ;;		None
  4604 ;; Tracked objects:
  4605 ;;		On entry : 0/0
  4606 ;;		On exit  : 0/0
  4607 ;;		Unchanged: 0/0
  4608 ;; Data sizes:     COMMON   BANK0   BANK1   BANK3   BANK2
  4609 ;;      Params:         0       0       0       0       0
  4610 ;;      Locals:         0       0       0       0       0
  4611 ;;      Temps:          0       0       0       0       0
  4612 ;;      Totals:         0       0       0       0       0
  4613 ;;Total ram usage:        0 bytes
  4614 ;; Hardware stack levels used: 1
  4615 ;; Hardware stack levels required when called: 1
  4616 ;; This function calls:
  4617 ;;		Nothing
  4618 ;; This function is called by:
  4619 ;;		_MOVE
  4620 ;; This function uses a non-reentrant model
  4621 ;;
  4622                           
  4623     0DF2                     _Right:	
  4624                           ;psect for function _Right
  4625                           
  4626     0DF2                     l1769:	
  4627                           ;incstack = 0
  4628                           ; Regs used in _Right: []
  4629                           
  4630                           
  4631                           ;main.c: 282:     RB0 = 1;
  4632     0DF2  1283               	bcf	3,5	;RP0=0, select bank0
  4633     0DF3  1303               	bcf	3,6	;RP1=0, select bank0
  4634     0DF4  1406               	bsf	6,0	;volatile
  4635                           
  4636                           ;main.c: 283:     RB1 = 0;
  4637     0DF5  1086               	bcf	6,1	;volatile
  4638                           
  4639                           ;main.c: 284:     RB2 = 0;
  4640     0DF6  1106               	bcf	6,2	;volatile
  4641                           
  4642                           ;main.c: 285:     RB3 = 1;
  4643     0DF7  1586               	bsf	6,3	;volatile
  4644     0DF8                     l281:
  4645     0DF8  0008               	return
  4646     0DF9                     __end_of_Right:
  4647                           
  4648                           	psect	text23
  4649     0DEB                     __ptext23:	
  4650 ;; *************** function _Left *****************
  4651 ;; Defined at:
  4652 ;;		line 288 in file "main.c"
  4653 ;; Parameters:    Size  Location     Type
  4654 ;;		None
  4655 ;; Auto vars:     Size  Location     Type
  4656 ;;		None
  4657 ;; Return value:  Size  Location     Type
  4658 ;;                  1    wreg      void 
  4659 ;; Registers used:
  4660 ;;		None
  4661 ;; Tracked objects:
  4662 ;;		On entry : 0/0
  4663 ;;		On exit  : 0/0
  4664 ;;		Unchanged: 0/0
  4665 ;; Data sizes:     COMMON   BANK0   BANK1   BANK3   BANK2
  4666 ;;      Params:         0       0       0       0       0
  4667 ;;      Locals:         0       0       0       0       0
  4668 ;;      Temps:          0       0       0       0       0
  4669 ;;      Totals:         0       0       0       0       0
  4670 ;;Total ram usage:        0 bytes
  4671 ;; Hardware stack levels used: 1
  4672 ;; Hardware stack levels required when called: 1
  4673 ;; This function calls:
  4674 ;;		Nothing
  4675 ;; This function is called by:
  4676 ;;		_MOVE
  4677 ;; This function uses a non-reentrant model
  4678 ;;
  4679                           
  4680     0DEB                     _Left:	
  4681                           ;psect for function _Left
  4682                           
  4683     0DEB                     l1771:	
  4684                           ;incstack = 0
  4685                           ; Regs used in _Left: []
  4686                           
  4687                           
  4688                           ;main.c: 289:     RB0 = 0;
  4689     0DEB  1283               	bcf	3,5	;RP0=0, select bank0
  4690     0DEC  1303               	bcf	3,6	;RP1=0, select bank0
  4691     0DED  1006               	bcf	6,0	;volatile
  4692                           
  4693                           ;main.c: 290:     RB1 = 1;
  4694     0DEE  1486               	bsf	6,1	;volatile
  4695                           
  4696                           ;main.c: 291:     RB2 = 1;
  4697     0DEF  1506               	bsf	6,2	;volatile
  4698                           
  4699                           ;main.c: 292:     RB3 = 0;
  4700     0DF0  1186               	bcf	6,3	;volatile
  4701     0DF1                     l284:
  4702     0DF1  0008               	return
  4703     0DF2                     __end_of_Left:
  4704                           
  4705                           	psect	text24
  4706     0DE4                     __ptext24:	
  4707 ;; *************** function _Forward *****************
  4708 ;; Defined at:
  4709 ;;		line 267 in file "main.c"
  4710 ;; Parameters:    Size  Location     Type
  4711 ;;		None
  4712 ;; Auto vars:     Size  Location     Type
  4713 ;;		None
  4714 ;; Return value:  Size  Location     Type
  4715 ;;                  1    wreg      void 
  4716 ;; Registers used:
  4717 ;;		None
  4718 ;; Tracked objects:
  4719 ;;		On entry : 0/0
  4720 ;;		On exit  : 0/0
  4721 ;;		Unchanged: 0/0
  4722 ;; Data sizes:     COMMON   BANK0   BANK1   BANK3   BANK2
  4723 ;;      Params:         0       0       0       0       0
  4724 ;;      Locals:         0       0       0       0       0
  4725 ;;      Temps:          0       0       0       0       0
  4726 ;;      Totals:         0       0       0       0       0
  4727 ;;Total ram usage:        0 bytes
  4728 ;; Hardware stack levels used: 1
  4729 ;; Hardware stack levels required when called: 1
  4730 ;; This function calls:
  4731 ;;		Nothing
  4732 ;; This function is called by:
  4733 ;;		_MOVE
  4734 ;; This function uses a non-reentrant model
  4735 ;;
  4736                           
  4737     0DE4                     _Forward:	
  4738                           ;psect for function _Forward
  4739                           
  4740     0DE4                     l1765:	
  4741                           ;incstack = 0
  4742                           ; Regs used in _Forward: []
  4743                           
  4744                           
  4745                           ;main.c: 268:     RB0 = 1;
  4746     0DE4  1283               	bcf	3,5	;RP0=0, select bank0
  4747     0DE5  1303               	bcf	3,6	;RP1=0, select bank0
  4748     0DE6  1406               	bsf	6,0	;volatile
  4749                           
  4750                           ;main.c: 269:     RB1 = 0;
  4751     0DE7  1086               	bcf	6,1	;volatile
  4752                           
  4753                           ;main.c: 270:     RB2 = 1;
  4754     0DE8  1506               	bsf	6,2	;volatile
  4755                           
  4756                           ;main.c: 271:     RB3 = 0;
  4757     0DE9  1186               	bcf	6,3	;volatile
  4758     0DEA                     l275:
  4759     0DEA  0008               	return
  4760     0DEB                     __end_of_Forward:
  4761                           
  4762                           	psect	text25
  4763     0DDD                     __ptext25:	
  4764 ;; *************** function _Backward *****************
  4765 ;; Defined at:
  4766 ;;		line 274 in file "main.c"
  4767 ;; Parameters:    Size  Location     Type
  4768 ;;		None
  4769 ;; Auto vars:     Size  Location     Type
  4770 ;;		None
  4771 ;; Return value:  Size  Location     Type
  4772 ;;                  1    wreg      void 
  4773 ;; Registers used:
  4774 ;;		None
  4775 ;; Tracked objects:
  4776 ;;		On entry : 0/0
  4777 ;;		On exit  : 0/0
  4778 ;;		Unchanged: 0/0
  4779 ;; Data sizes:     COMMON   BANK0   BANK1   BANK3   BANK2
  4780 ;;      Params:         0       0       0       0       0
  4781 ;;      Locals:         0       0       0       0       0
  4782 ;;      Temps:          0       0       0       0       0
  4783 ;;      Totals:         0       0       0       0       0
  4784 ;;Total ram usage:        0 bytes
  4785 ;; Hardware stack levels used: 1
  4786 ;; Hardware stack levels required when called: 1
  4787 ;; This function calls:
  4788 ;;		Nothing
  4789 ;; This function is called by:
  4790 ;;		_MOVE
  4791 ;; This function uses a non-reentrant model
  4792 ;;
  4793                           
  4794     0DDD                     _Backward:	
  4795                           ;psect for function _Backward
  4796                           
  4797     0DDD                     l1767:	
  4798                           ;incstack = 0
  4799                           ; Regs used in _Backward: []
  4800                           
  4801                           
  4802                           ;main.c: 275:     RB0 = 0;
  4803     0DDD  1283               	bcf	3,5	;RP0=0, select bank0
  4804     0DDE  1303               	bcf	3,6	;RP1=0, select bank0
  4805     0DDF  1006               	bcf	6,0	;volatile
  4806                           
  4807                           ;main.c: 276:     RB1 = 1;
  4808     0DE0  1486               	bsf	6,1	;volatile
  4809                           
  4810                           ;main.c: 277:     RB2 = 0;
  4811     0DE1  1106               	bcf	6,2	;volatile
  4812                           
  4813                           ;main.c: 278:     RB3 = 1;
  4814     0DE2  1586               	bsf	6,3	;volatile
  4815     0DE3                     l278:
  4816     0DE3  0008               	return
  4817     0DE4                     __end_of_Backward:
  4818                           
  4819                           	psect	text26
  4820     0E3D                     __ptext26:	
  4821 ;; *************** function _LED_Init *****************
  4822 ;; Defined at:
  4823 ;;		line 155 in file "main.c"
  4824 ;; Parameters:    Size  Location     Type
  4825 ;;		None
  4826 ;; Auto vars:     Size  Location     Type
  4827 ;;		None
  4828 ;; Return value:  Size  Location     Type
  4829 ;;                  1    wreg      void 
  4830 ;; Registers used:
  4831 ;;		wreg, status,2
  4832 ;; Tracked objects:
  4833 ;;		On entry : 0/0
  4834 ;;		On exit  : 0/0
  4835 ;;		Unchanged: 0/0
  4836 ;; Data sizes:     COMMON   BANK0   BANK1   BANK3   BANK2
  4837 ;;      Params:         0       0       0       0       0
  4838 ;;      Locals:         0       0       0       0       0
  4839 ;;      Temps:          0       0       0       0       0
  4840 ;;      Totals:         0       0       0       0       0
  4841 ;;Total ram usage:        0 bytes
  4842 ;; Hardware stack levels used: 1
  4843 ;; Hardware stack levels required when called: 1
  4844 ;; This function calls:
  4845 ;;		Nothing
  4846 ;; This function is called by:
  4847 ;;		_main
  4848 ;; This function uses a non-reentrant model
  4849 ;;
  4850                           
  4851     0E3D                     _LED_Init:	
  4852                           ;psect for function _LED_Init
  4853                           
  4854     0E3D                     l2175:	
  4855                           ;incstack = 0
  4856                           ; Regs used in _LED_Init: [wreg+status,2]
  4857                           
  4858                           
  4859                           ;main.c: 157:     TRISC1 = 0;
  4860     0E3D  1683               	bsf	3,5	;RP0=1, select bank1
  4861     0E3E  1303               	bcf	3,6	;RP1=0, select bank1
  4862     0E3F  1087               	bcf	7,1	;volatile
  4863     0E40                     l2177:
  4864                           
  4865                           ;main.c: 158:     T1CON = 0x04;
  4866     0E40  3004               	movlw	4
  4867     0E41  1283               	bcf	3,5	;RP0=0, select bank0
  4868     0E42  1303               	bcf	3,6	;RP1=0, select bank0
  4869     0E43  0090               	movwf	16	;volatile
  4870                           
  4871                           ;main.c: 160:     PR2 = 249;
  4872     0E44  30F9               	movlw	249
  4873     0E45  1683               	bsf	3,5	;RP0=1, select bank1
  4874     0E46  1303               	bcf	3,6	;RP1=0, select bank1
  4875     0E47  0092               	movwf	18	;volatile
  4876     0E48                     l2179:
  4877                           
  4878                           ;main.c: 161:     T1CONbits.TMR1ON = 1;
  4879     0E48  1283               	bcf	3,5	;RP0=0, select bank0
  4880     0E49  1303               	bcf	3,6	;RP1=0, select bank0
  4881     0E4A  1410               	bsf	16,0	;volatile
  4882                           
  4883                           ;main.c: 163:     CCP2CON = 0x0C;
  4884     0E4B  300C               	movlw	12
  4885     0E4C  009D               	movwf	29	;volatile
  4886     0E4D                     l2181:
  4887                           
  4888                           ;main.c: 164:     CCPR1L = 00;
  4889     0E4D  0195               	clrf	21	;volatile
  4890     0E4E                     l218:
  4891     0E4E  0008               	return
  4892     0E4F                     __end_of_LED_Init:
  4893                           
  4894                           	psect	text27
  4895     0E7D                     __ptext27:	
  4896 ;; *************** function _Initialize_UART *****************
  4897 ;; Defined at:
  4898 ;;		line 247 in file "main.c"
  4899 ;; Parameters:    Size  Location     Type
  4900 ;;		None
  4901 ;; Auto vars:     Size  Location     Type
  4902 ;;		None
  4903 ;; Return value:  Size  Location     Type
  4904 ;;                  1    wreg      void 
  4905 ;; Registers used:
  4906 ;;		wreg
  4907 ;; Tracked objects:
  4908 ;;		On entry : 0/0
  4909 ;;		On exit  : 0/0
  4910 ;;		Unchanged: 0/0
  4911 ;; Data sizes:     COMMON   BANK0   BANK1   BANK3   BANK2
  4912 ;;      Params:         0       0       0       0       0
  4913 ;;      Locals:         0       0       0       0       0
  4914 ;;      Temps:          0       0       0       0       0
  4915 ;;      Totals:         0       0       0       0       0
  4916 ;;Total ram usage:        0 bytes
  4917 ;; Hardware stack levels used: 1
  4918 ;; Hardware stack levels required when called: 1
  4919 ;; This function calls:
  4920 ;;		Nothing
  4921 ;; This function is called by:
  4922 ;;		_main
  4923 ;; This function uses a non-reentrant model
  4924 ;;
  4925                           
  4926     0E7D                     _Initialize_UART:	
  4927                           ;psect for function _Initialize_UART
  4928                           
  4929     0E7D                     l2133:	
  4930                           ;incstack = 0
  4931                           ; Regs used in _Initialize_UART: [wreg]
  4932                           
  4933                           
  4934                           ;main.c: 248:     TRISC6 = 0;
  4935     0E7D  1683               	bsf	3,5	;RP0=1, select bank1
  4936     0E7E  1303               	bcf	3,6	;RP1=0, select bank1
  4937     0E7F  1307               	bcf	7,6	;volatile
  4938                           
  4939                           ;main.c: 249:     TRISC7 = 1;
  4940     0E80  1787               	bsf	7,7	;volatile
  4941     0E81                     l2135:
  4942                           
  4943                           ;main.c: 250:     SPBRG = ((4000000 / 16) / 9600) - 1;
  4944     0E81  3019               	movlw	25
  4945     0E82  0099               	movwf	25	;volatile
  4946     0E83                     l2137:
  4947                           
  4948                           ;main.c: 251:     BRGH = 1;
  4949     0E83  1518               	bsf	24,2	;volatile
  4950     0E84                     l2139:
  4951                           
  4952                           ;main.c: 252:     SYNC = 0;
  4953     0E84  1218               	bcf	24,4	;volatile
  4954     0E85                     l2141:
  4955                           
  4956                           ;main.c: 253:     SPEN = 1;
  4957     0E85  1283               	bcf	3,5	;RP0=0, select bank0
  4958     0E86  1303               	bcf	3,6	;RP1=0, select bank0
  4959     0E87  1798               	bsf	24,7	;volatile
  4960     0E88                     l2143:
  4961                           
  4962                           ;main.c: 254:     TXEN = 1;
  4963     0E88  1683               	bsf	3,5	;RP0=1, select bank1
  4964     0E89  1303               	bcf	3,6	;RP1=0, select bank1
  4965     0E8A  1698               	bsf	24,5	;volatile
  4966     0E8B                     l2145:
  4967                           
  4968                           ;main.c: 255:     CREN = 1;
  4969     0E8B  1283               	bcf	3,5	;RP0=0, select bank0
  4970     0E8C  1303               	bcf	3,6	;RP1=0, select bank0
  4971     0E8D  1618               	bsf	24,4	;volatile
  4972     0E8E                     l2147:
  4973                           
  4974                           ;main.c: 256:     TX9 = 0;
  4975     0E8E  1683               	bsf	3,5	;RP0=1, select bank1
  4976     0E8F  1303               	bcf	3,6	;RP1=0, select bank1
  4977     0E90  1318               	bcf	24,6	;volatile
  4978     0E91                     l2149:
  4979                           
  4980                           ;main.c: 257:     RX9 = 0;
  4981     0E91  1283               	bcf	3,5	;RP0=0, select bank0
  4982     0E92  1303               	bcf	3,6	;RP1=0, select bank0
  4983     0E93  1318               	bcf	24,6	;volatile
  4984     0E94                     l269:
  4985     0E94  0008               	return
  4986     0E95                     __end_of_Initialize_UART:
  4987                           
  4988                           	psect	text28
  4989     0DD6                     __ptext28:	
  4990 ;; *************** function _Initialize_Hbridge *****************
  4991 ;; Defined at:
  4992 ;;		line 260 in file "main.c"
  4993 ;; Parameters:    Size  Location     Type
  4994 ;;		None
  4995 ;; Auto vars:     Size  Location     Type
  4996 ;;		None
  4997 ;; Return value:  Size  Location     Type
  4998 ;;                  1    wreg      void 
  4999 ;; Registers used:
  5000 ;;		None
  5001 ;; Tracked objects:
  5002 ;;		On entry : 0/0
  5003 ;;		On exit  : 0/0
  5004 ;;		Unchanged: 0/0
  5005 ;; Data sizes:     COMMON   BANK0   BANK1   BANK3   BANK2
  5006 ;;      Params:         0       0       0       0       0
  5007 ;;      Locals:         0       0       0       0       0
  5008 ;;      Temps:          0       0       0       0       0
  5009 ;;      Totals:         0       0       0       0       0
  5010 ;;Total ram usage:        0 bytes
  5011 ;; Hardware stack levels used: 1
  5012 ;; Hardware stack levels required when called: 1
  5013 ;; This function calls:
  5014 ;;		Nothing
  5015 ;; This function is called by:
  5016 ;;		_main
  5017 ;; This function uses a non-reentrant model
  5018 ;;
  5019                           
  5020     0DD6                     _Initialize_Hbridge:	
  5021                           ;psect for function _Initialize_Hbridge
  5022                           
  5023     0DD6                     l2151:	
  5024                           ;incstack = 0
  5025                           ; Regs used in _Initialize_Hbridge: []
  5026                           
  5027                           
  5028                           ;main.c: 261:     TRISB0 = 0;
  5029     0DD6  1683               	bsf	3,5	;RP0=1, select bank1
  5030     0DD7  1303               	bcf	3,6	;RP1=0, select bank1
  5031     0DD8  1006               	bcf	6,0	;volatile
  5032                           
  5033                           ;main.c: 262:     TRISB1 = 0;
  5034     0DD9  1086               	bcf	6,1	;volatile
  5035                           
  5036                           ;main.c: 263:     TRISB2 = 0;
  5037     0DDA  1106               	bcf	6,2	;volatile
  5038                           
  5039                           ;main.c: 264:     TRISB3 = 0;
  5040     0DDB  1186               	bcf	6,3	;volatile
  5041     0DDC                     l272:
  5042     0DDC  0008               	return
  5043     0DDD                     __end_of_Initialize_Hbridge:
  5044                           
  5045                           	psect	text29
  5046     0F29                     __ptext29:	
  5047 ;; *************** function _DHT11_Read *****************
  5048 ;; Defined at:
  5049 ;;		line 397 in file "main.c"
  5050 ;; Parameters:    Size  Location     Type
  5051 ;;		None
  5052 ;; Auto vars:     Size  Location     Type
  5053 ;;  checksum        1    0        unsigned char 
  5054 ;; Return value:  Size  Location     Type
  5055 ;;                  1    wreg      void 
  5056 ;; Registers used:
  5057 ;;		wreg, status,2, status,0, btemp+1, pclath, cstack
  5058 ;; Tracked objects:
  5059 ;;		On entry : 0/0
  5060 ;;		On exit  : 0/0
  5061 ;;		Unchanged: 0/0
  5062 ;; Data sizes:     COMMON   BANK0   BANK1   BANK3   BANK2
  5063 ;;      Params:         0       0       0       0       0
  5064 ;;      Locals:         0       0       0       0       0
  5065 ;;      Temps:          0       0       0       0       0
  5066 ;;      Totals:         0       0       0       0       0
  5067 ;;Total ram usage:        0 bytes
  5068 ;; Hardware stack levels used: 1
  5069 ;; Hardware stack levels required when called: 3
  5070 ;; This function calls:
  5071 ;;		_DHT11_Check_Response
  5072 ;;		_DHT11_Read_Byte
  5073 ;;		_DHT11_Start
  5074 ;; This function is called by:
  5075 ;;		_main
  5076 ;; This function uses a non-reentrant model
  5077 ;;
  5078                           
  5079     0F29                     _DHT11_Read:	
  5080                           ;psect for function _DHT11_Read
  5081                           
  5082     0F29                     l2333:	
  5083                           ;incstack = 0
  5084                           ; Regs used in _DHT11_Read: [wreg+status,2+status,0+btemp+1+pclath+cstack]
  5085                           
  5086                           
  5087                           ;main.c: 398:     unsigned char checksum;;main.c: 400:     DHT11_Start();
  5088     0F29  120A  158A  2695  120A  158A  	fcall	_DHT11_Start
  5089                           
  5090                           ;main.c: 401:     if (DHT11_Check_Response()) {
  5091     0F2E  120A  158A  26D9  120A  158A  	fcall	_DHT11_Check_Response
  5092     0F33  3A00               	xorlw	0
  5093     0F34  1903               	skipnz
  5094     0F35  2F37               	goto	u2661
  5095     0F36  2F38               	goto	u2660
  5096     0F37                     u2661:
  5097     0F37  2F55               	goto	l341
  5098     0F38                     u2660:
  5099     0F38                     l2335:
  5100                           
  5101                           ;main.c: 402:         humidity = DHT11_Read_Byte();
  5102     0F38  120A  158A  2786  120A  158A  	fcall	_DHT11_Read_Byte
  5103     0F3D  1283               	bcf	3,5	;RP0=0, select bank0
  5104     0F3E  1303               	bcf	3,6	;RP1=0, select bank0
  5105     0F3F  00DD               	movwf	_humidity
  5106                           
  5107                           ;main.c: 403:         DHT11_Read_Byte();
  5108     0F40  120A  158A  2786  120A  158A  	fcall	_DHT11_Read_Byte
  5109                           
  5110                           ;main.c: 404:         temperature = DHT11_Read_Byte();
  5111     0F45  120A  158A  2786  120A  158A  	fcall	_DHT11_Read_Byte
  5112     0F4A  00FA               	movwf	_temperature
  5113                           
  5114                           ;main.c: 405:         DHT11_Read_Byte();
  5115     0F4B  120A  158A  2786  120A  158A  	fcall	_DHT11_Read_Byte
  5116     0F50  120A  158A  2786  120A  158A  	fcall	_DHT11_Read_Byte
  5117     0F55                     l341:
  5118     0F55  0008               	return
  5119     0F56                     __end_of_DHT11_Read:
  5120                           
  5121                           	psect	text30
  5122     0E95                     __ptext30:	
  5123 ;; *************** function _DHT11_Start *****************
  5124 ;; Defined at:
  5125 ;;		line 362 in file "main.c"
  5126 ;; Parameters:    Size  Location     Type
  5127 ;;		None
  5128 ;; Auto vars:     Size  Location     Type
  5129 ;;		None
  5130 ;; Return value:  Size  Location     Type
  5131 ;;                  1    wreg      void 
  5132 ;; Registers used:
  5133 ;;		wreg, status,2, status,0, pclath, cstack
  5134 ;; Tracked objects:
  5135 ;;		On entry : 0/0
  5136 ;;		On exit  : 0/0
  5137 ;;		Unchanged: 0/0
  5138 ;; Data sizes:     COMMON   BANK0   BANK1   BANK3   BANK2
  5139 ;;      Params:         0       0       0       0       0
  5140 ;;      Locals:         0       0       0       0       0
  5141 ;;      Temps:          0       0       0       0       0
  5142 ;;      Totals:         0       0       0       0       0
  5143 ;;Total ram usage:        0 bytes
  5144 ;; Hardware stack levels used: 1
  5145 ;; Hardware stack levels required when called: 2
  5146 ;; This function calls:
  5147 ;;		_delay_ms
  5148 ;;		_delay_us
  5149 ;; This function is called by:
  5150 ;;		_DHT11_Read
  5151 ;; This function uses a non-reentrant model
  5152 ;;
  5153                           
  5154     0E95                     _DHT11_Start:	
  5155                           ;psect for function _DHT11_Start
  5156                           
  5157     0E95                     l1787:	
  5158                           ;incstack = 0
  5159                           ; Regs used in _DHT11_Start: [wreg+status,2+status,0+pclath+cstack]
  5160                           
  5161                           
  5162                           ;main.c: 363:     TRISC0 = 0;
  5163     0E95  1683               	bsf	3,5	;RP0=1, select bank1
  5164     0E96  1303               	bcf	3,6	;RP1=0, select bank1
  5165     0E97  1007               	bcf	7,0	;volatile
  5166                           
  5167                           ;main.c: 364:     RC0 = 0;
  5168     0E98  1283               	bcf	3,5	;RP0=0, select bank0
  5169     0E99  1303               	bcf	3,6	;RP1=0, select bank0
  5170     0E9A  1007               	bcf	7,0	;volatile
  5171     0E9B                     l1789:
  5172                           
  5173                           ;main.c: 365:     delay_ms(18);
  5174     0E9B  3012               	movlw	18
  5175     0E9C  00F2               	movwf	delay_ms@x
  5176     0E9D  3000               	movlw	0
  5177     0E9E  00F3               	movwf	delay_ms@x+1
  5178     0E9F  120A  158A  2700  120A  158A  	fcall	_delay_ms
  5179     0EA4                     l1791:
  5180                           
  5181                           ;main.c: 366:     RC0 = 1;
  5182     0EA4  1283               	bcf	3,5	;RP0=0, select bank0
  5183     0EA5  1303               	bcf	3,6	;RP1=0, select bank0
  5184     0EA6  1407               	bsf	7,0	;volatile
  5185                           
  5186                           ;main.c: 367:     delay_us(20);
  5187     0EA7  3014               	movlw	20
  5188     0EA8  00F2               	movwf	delay_us@x
  5189     0EA9  3000               	movlw	0
  5190     0EAA  00F3               	movwf	delay_us@x+1
  5191     0EAB  120A  158A  2665  120A  158A  	fcall	_delay_us
  5192     0EB0                     l1793:
  5193                           
  5194                           ;main.c: 368:     TRISC0 = 1;
  5195     0EB0  1683               	bsf	3,5	;RP0=1, select bank1
  5196     0EB1  1303               	bcf	3,6	;RP1=0, select bank1
  5197     0EB2  1407               	bsf	7,0	;volatile
  5198     0EB3                     l317:
  5199     0EB3  0008               	return
  5200     0EB4                     __end_of_DHT11_Start:
  5201                           
  5202                           	psect	text31
  5203     0F00                     __ptext31:	
  5204 ;; *************** function _delay_ms *****************
  5205 ;; Defined at:
  5206 ;;		line 125 in file "main.c"
  5207 ;; Parameters:    Size  Location     Type
  5208 ;;  x               2    2[COMMON] unsigned int 
  5209 ;; Auto vars:     Size  Location     Type
  5210 ;;  j               2    6[COMMON] unsigned int 
  5211 ;;  i               2    4[COMMON] unsigned int 
  5212 ;; Return value:  Size  Location     Type
  5213 ;;                  1    wreg      void 
  5214 ;; Registers used:
  5215 ;;		wreg, status,2
  5216 ;; Tracked objects:
  5217 ;;		On entry : 0/0
  5218 ;;		On exit  : 0/0
  5219 ;;		Unchanged: 0/0
  5220 ;; Data sizes:     COMMON   BANK0   BANK1   BANK3   BANK2
  5221 ;;      Params:         2       0       0       0       0
  5222 ;;      Locals:         4       0       0       0       0
  5223 ;;      Temps:          0       0       0       0       0
  5224 ;;      Totals:         6       0       0       0       0
  5225 ;;Total ram usage:        6 bytes
  5226 ;; Hardware stack levels used: 1
  5227 ;; Hardware stack levels required when called: 1
  5228 ;; This function calls:
  5229 ;;		Nothing
  5230 ;; This function is called by:
  5231 ;;		_DHT11_Start
  5232 ;; This function uses a non-reentrant model
  5233 ;;
  5234                           
  5235     0F00                     _delay_ms:	
  5236                           ;psect for function _delay_ms
  5237                           
  5238     0F00                     l1737:	
  5239                           ;incstack = 0
  5240                           ; Regs used in _delay_ms: [wreg+status,2]
  5241                           
  5242                           
  5243                           ;main.c: 126:     unsigned int i, j;;main.c: 127:     for(i = 0; i < x; i++) {
  5244     0F00  01F4               	clrf	delay_ms@i
  5245     0F01  01F5               	clrf	delay_ms@i+1
  5246     0F02  2F1E               	goto	l201
  5247     0F03                     l1739:
  5248                           
  5249                           ;main.c: 128:         for(j = 0; j < 1000; j++) {
  5250     0F03  01F6               	clrf	delay_ms@j
  5251     0F04  01F7               	clrf	delay_ms@j+1
  5252     0F05                     l203:
  5253     0F05  0000               	nop	;# 
  5254     0F06  0000               	nop	;# 
  5255     0F07  0000               	nop	;# 
  5256     0F08  0000               	nop	;# 
  5257     0F09                     l1745:
  5258                           
  5259                           ;main.c: 133:         }
  5260     0F09  3001               	movlw	1
  5261     0F0A  07F6               	addwf	delay_ms@j,f
  5262     0F0B  1803               	skipnc
  5263     0F0C  0AF7               	incf	delay_ms@j+1,f
  5264     0F0D  3000               	movlw	0
  5265     0F0E  07F7               	addwf	delay_ms@j+1,f
  5266     0F0F  3003               	movlw	3
  5267     0F10  0277               	subwf	delay_ms@j+1,w
  5268     0F11  30E8               	movlw	232
  5269     0F12  1903               	skipnz
  5270     0F13  0276               	subwf	delay_ms@j,w
  5271     0F14  1C03               	skipc
  5272     0F15  2F17               	goto	u1601
  5273     0F16  2F18               	goto	u1600
  5274     0F17                     u1601:
  5275     0F17  2F05               	goto	l203
  5276     0F18                     u1600:
  5277     0F18                     l1747:
  5278                           
  5279                           ;main.c: 134:     }
  5280     0F18  3001               	movlw	1
  5281     0F19  07F4               	addwf	delay_ms@i,f
  5282     0F1A  1803               	skipnc
  5283     0F1B  0AF5               	incf	delay_ms@i+1,f
  5284     0F1C  3000               	movlw	0
  5285     0F1D  07F5               	addwf	delay_ms@i+1,f
  5286     0F1E                     l201:
  5287     0F1E  0873               	movf	delay_ms@x+1,w
  5288     0F1F  0275               	subwf	delay_ms@i+1,w
  5289     0F20  1D03               	skipz
  5290     0F21  2F24               	goto	u1615
  5291     0F22  0872               	movf	delay_ms@x,w
  5292     0F23  0274               	subwf	delay_ms@i,w
  5293     0F24                     u1615:
  5294     0F24  1C03               	skipc
  5295     0F25  2F27               	goto	u1611
  5296     0F26  2F28               	goto	u1610
  5297     0F27                     u1611:
  5298     0F27  2F03               	goto	l1739
  5299     0F28                     u1610:
  5300     0F28                     l206:
  5301     0F28  0008               	return
  5302     0F29                     __end_of_delay_ms:
  5303                           
  5304                           	psect	text32
  5305     0F86                     __ptext32:	
  5306 ;; *************** function _DHT11_Read_Byte *****************
  5307 ;; Defined at:
  5308 ;;		line 384 in file "main.c"
  5309 ;; Parameters:    Size  Location     Type
  5310 ;;		None
  5311 ;; Auto vars:     Size  Location     Type
  5312 ;;  i               1    8[COMMON] unsigned char 
  5313 ;;  data            1    7[COMMON] unsigned char 
  5314 ;; Return value:  Size  Location     Type
  5315 ;;                  1    wreg      unsigned char 
  5316 ;; Registers used:
  5317 ;;		wreg, status,2, status,0, btemp+1, pclath, cstack
  5318 ;; Tracked objects:
  5319 ;;		On entry : 0/0
  5320 ;;		On exit  : 0/0
  5321 ;;		Unchanged: 0/0
  5322 ;; Data sizes:     COMMON   BANK0   BANK1   BANK3   BANK2
  5323 ;;      Params:         0       0       0       0       0
  5324 ;;      Locals:         2       0       0       0       0
  5325 ;;      Temps:          1       0       0       0       0
  5326 ;;      Totals:         3       0       0       0       0
  5327 ;;Total ram usage:        3 bytes
  5328 ;; Hardware stack levels used: 1
  5329 ;; Hardware stack levels required when called: 2
  5330 ;; This function calls:
  5331 ;;		_delay_us
  5332 ;; This function is called by:
  5333 ;;		_DHT11_Read
  5334 ;; This function uses a non-reentrant model
  5335 ;;
  5336                           
  5337     0F86                     _DHT11_Read_Byte:	
  5338                           ;psect for function _DHT11_Read_Byte
  5339                           
  5340     0F86                     l1811:	
  5341                           ;incstack = 0
  5342                           ; Regs used in _DHT11_Read_Byte: [wreg+status,2+status,0+btemp+1+pclath+cstack]
  5343                           
  5344                           
  5345                           ;main.c: 385:     unsigned char i, data = 0;
  5346     0F86  01F7               	clrf	DHT11_Read_Byte@data
  5347                           
  5348                           ;main.c: 386:     for (i = 0; i < 8; i++) {
  5349     0F87  01F8               	clrf	DHT11_Read_Byte@i
  5350     0F88                     l330:
  5351     0F88  1283               	bcf	3,5	;RP0=0, select bank0
  5352     0F89  1303               	bcf	3,6	;RP1=0, select bank0
  5353     0F8A  1C07               	btfss	7,0	;volatile
  5354     0F8B  2F8D               	goto	u1681
  5355     0F8C  2F8E               	goto	u1680
  5356     0F8D                     u1681:
  5357     0F8D  2F88               	goto	l330
  5358     0F8E                     u1680:
  5359     0F8E                     l1817:
  5360                           
  5361                           ;main.c: 388:         delay_us(30);
  5362     0F8E  301E               	movlw	30
  5363     0F8F  00F2               	movwf	delay_us@x
  5364     0F90  3000               	movlw	0
  5365     0F91  00F3               	movwf	delay_us@x+1
  5366     0F92  120A  158A  2665  120A  158A  	fcall	_delay_us
  5367     0F97                     l1819:
  5368                           
  5369                           ;main.c: 389:         if (RC0 == 1) {
  5370     0F97  1283               	bcf	3,5	;RP0=0, select bank0
  5371     0F98  1303               	bcf	3,6	;RP1=0, select bank0
  5372     0F99  1C07               	btfss	7,0	;volatile
  5373     0F9A  2F9C               	goto	u1691
  5374     0F9B  2F9D               	goto	u1690
  5375     0F9C                     u1691:
  5376     0F9C  2FAC               	goto	l334
  5377     0F9D                     u1690:
  5378     0F9D                     l1821:
  5379                           
  5380                           ;main.c: 390:             data |= (1 << (7 - i));
  5381     0F9D  3001               	movlw	1
  5382     0F9E  00F6               	movwf	??_DHT11_Read_Byte
  5383     0F9F  0878               	movf	DHT11_Read_Byte@i,w
  5384     0FA0  3C07               	sublw	7
  5385     0FA1  3E01               	addlw	1
  5386     0FA2  2FA5               	goto	u1704
  5387     0FA3                     u1705:
  5388     0FA3  1003               	clrc
  5389     0FA4  0DF6               	rlf	??_DHT11_Read_Byte,f
  5390     0FA5                     u1704:
  5391     0FA5  3EFF               	addlw	-1
  5392     0FA6  1D03               	skipz
  5393     0FA7  2FA3               	goto	u1705
  5394     0FA8  0876               	movf	??_DHT11_Read_Byte,w
  5395     0FA9  00FF               	movwf	btemp+1
  5396     0FAA  087F               	movf	btemp+1,w
  5397     0FAB  04F7               	iorwf	DHT11_Read_Byte@data,f
  5398     0FAC                     l334:
  5399     0FAC  1807               	btfsc	7,0	;volatile
  5400     0FAD  2FAF               	goto	u1711
  5401     0FAE  2FB0               	goto	u1710
  5402     0FAF                     u1711:
  5403     0FAF  2FAC               	goto	l334
  5404     0FB0                     u1710:
  5405     0FB0                     l1823:
  5406                           
  5407                           ;main.c: 393:     }
  5408     0FB0  3001               	movlw	1
  5409     0FB1  00FF               	movwf	btemp+1
  5410     0FB2  087F               	movf	btemp+1,w
  5411     0FB3  07F8               	addwf	DHT11_Read_Byte@i,f
  5412     0FB4                     l1825:
  5413     0FB4  3008               	movlw	8
  5414     0FB5  0278               	subwf	DHT11_Read_Byte@i,w
  5415     0FB6  1C03               	skipc
  5416     0FB7  2FB9               	goto	u1721
  5417     0FB8  2FBA               	goto	u1720
  5418     0FB9                     u1721:
  5419     0FB9  2F88               	goto	l330
  5420     0FBA                     u1720:
  5421     0FBA                     l1827:
  5422                           
  5423                           ;main.c: 394:     return data;
  5424     0FBA  0877               	movf	DHT11_Read_Byte@data,w
  5425     0FBB                     l337:
  5426     0FBB  0008               	return
  5427     0FBC                     __end_of_DHT11_Read_Byte:
  5428                           
  5429                           	psect	text33
  5430     0ED9                     __ptext33:	
  5431 ;; *************** function _DHT11_Check_Response *****************
  5432 ;; Defined at:
  5433 ;;		line 371 in file "main.c"
  5434 ;; Parameters:    Size  Location     Type
  5435 ;;		None
  5436 ;; Auto vars:     Size  Location     Type
  5437 ;;  response        1    6[COMMON] unsigned char 
  5438 ;; Return value:  Size  Location     Type
  5439 ;;                  1    wreg      unsigned char 
  5440 ;; Registers used:
  5441 ;;		wreg, status,2, status,0, pclath, cstack
  5442 ;; Tracked objects:
  5443 ;;		On entry : 0/0
  5444 ;;		On exit  : 0/0
  5445 ;;		Unchanged: 0/0
  5446 ;; Data sizes:     COMMON   BANK0   BANK1   BANK3   BANK2
  5447 ;;      Params:         0       0       0       0       0
  5448 ;;      Locals:         1       0       0       0       0
  5449 ;;      Temps:          0       0       0       0       0
  5450 ;;      Totals:         1       0       0       0       0
  5451 ;;Total ram usage:        1 bytes
  5452 ;; Hardware stack levels used: 1
  5453 ;; Hardware stack levels required when called: 2
  5454 ;; This function calls:
  5455 ;;		_delay_us
  5456 ;; This function is called by:
  5457 ;;		_DHT11_Read
  5458 ;; This function uses a non-reentrant model
  5459 ;;
  5460                           
  5461     0ED9                     _DHT11_Check_Response:	
  5462                           ;psect for function _DHT11_Check_Response
  5463                           
  5464     0ED9                     l1795:	
  5465                           ;incstack = 0
  5466                           ; Regs used in _DHT11_Check_Response: [wreg+status,2+status,0+pclath+cstack]
  5467                           
  5468                           
  5469                           ;main.c: 372:     unsigned char response = 0;
  5470     0ED9  01F6               	clrf	DHT11_Check_Response@response
  5471     0EDA                     l1797:
  5472                           
  5473                           ;main.c: 373:     delay_us(40);
  5474     0EDA  3028               	movlw	40
  5475     0EDB  00F2               	movwf	delay_us@x
  5476     0EDC  3000               	movlw	0
  5477     0EDD  00F3               	movwf	delay_us@x+1
  5478     0EDE  120A  158A  2665  120A  158A  	fcall	_delay_us
  5479     0EE3                     l1799:
  5480                           
  5481                           ;main.c: 374:     if (RC0 == 0) {
  5482     0EE3  1283               	bcf	3,5	;RP0=0, select bank0
  5483     0EE4  1303               	bcf	3,6	;RP1=0, select bank0
  5484     0EE5  1807               	btfsc	7,0	;volatile
  5485     0EE6  2EE8               	goto	u1651
  5486     0EE7  2EE9               	goto	u1650
  5487     0EE8                     u1651:
  5488     0EE8  2EFA               	goto	l322
  5489     0EE9                     u1650:
  5490     0EE9                     l1801:
  5491                           
  5492                           ;main.c: 375:         delay_us(80);
  5493     0EE9  3050               	movlw	80
  5494     0EEA  00F2               	movwf	delay_us@x
  5495     0EEB  3000               	movlw	0
  5496     0EEC  00F3               	movwf	delay_us@x+1
  5497     0EED  120A  158A  2665  120A  158A  	fcall	_delay_us
  5498     0EF2                     l1803:
  5499                           
  5500                           ;main.c: 376:         if (RC0 == 1) {
  5501     0EF2  1283               	bcf	3,5	;RP0=0, select bank0
  5502     0EF3  1303               	bcf	3,6	;RP1=0, select bank0
  5503     0EF4  1C07               	btfss	7,0	;volatile
  5504     0EF5  2EF7               	goto	u1661
  5505     0EF6  2EF8               	goto	u1660
  5506     0EF7                     u1661:
  5507     0EF7  2EFA               	goto	l322
  5508     0EF8                     u1660:
  5509     0EF8                     l1805:
  5510                           
  5511                           ;main.c: 377:             response = 1;
  5512     0EF8  01F6               	clrf	DHT11_Check_Response@response
  5513     0EF9  0AF6               	incf	DHT11_Check_Response@response,f
  5514     0EFA                     l322:
  5515     0EFA  1807               	btfsc	7,0	;volatile
  5516     0EFB  2EFD               	goto	u1671
  5517     0EFC  2EFE               	goto	u1670
  5518     0EFD                     u1671:
  5519     0EFD  2EFA               	goto	l322
  5520     0EFE                     u1670:
  5521     0EFE                     l1807:
  5522                           
  5523                           ;main.c: 381:     return response;
  5524     0EFE  0876               	movf	DHT11_Check_Response@response,w
  5525     0EFF                     l325:
  5526     0EFF  0008               	return
  5527     0F00                     __end_of_DHT11_Check_Response:
  5528                           
  5529                           	psect	text34
  5530     0E65                     __ptext34:	
  5531 ;; *************** function _delay_us *****************
  5532 ;; Defined at:
  5533 ;;		line 137 in file "main.c"
  5534 ;; Parameters:    Size  Location     Type
  5535 ;;  x               2    2[COMMON] unsigned int 
  5536 ;; Auto vars:     Size  Location     Type
  5537 ;;  i               2    4[COMMON] unsigned int 
  5538 ;; Return value:  Size  Location     Type
  5539 ;;                  1    wreg      void 
  5540 ;; Registers used:
  5541 ;;		wreg, status,2
  5542 ;; Tracked objects:
  5543 ;;		On entry : 0/0
  5544 ;;		On exit  : 0/0
  5545 ;;		Unchanged: 0/0
  5546 ;; Data sizes:     COMMON   BANK0   BANK1   BANK3   BANK2
  5547 ;;      Params:         2       0       0       0       0
  5548 ;;      Locals:         2       0       0       0       0
  5549 ;;      Temps:          0       0       0       0       0
  5550 ;;      Totals:         4       0       0       0       0
  5551 ;;Total ram usage:        4 bytes
  5552 ;; Hardware stack levels used: 1
  5553 ;; Hardware stack levels required when called: 1
  5554 ;; This function calls:
  5555 ;;		Nothing
  5556 ;; This function is called by:
  5557 ;;		_Read_Ultrasonic1
  5558 ;;		_Read_Ultrasonic2
  5559 ;;		_DHT11_Start
  5560 ;;		_DHT11_Check_Response
  5561 ;;		_DHT11_Read_Byte
  5562 ;; This function uses a non-reentrant model
  5563 ;;
  5564                           
  5565     0E65                     _delay_us:	
  5566                           ;psect for function _delay_us
  5567                           
  5568     0E65                     l1749:	
  5569                           ;incstack = 0
  5570                           ; Regs used in _delay_us: [wreg+status,2]
  5571                           
  5572                           
  5573                           ;main.c: 138:     unsigned int i;;main.c: 139:     for(i = 0; i < x; i++) {
  5574     0E65  01F4               	clrf	delay_us@i
  5575     0E66  01F5               	clrf	delay_us@i+1
  5576     0E67  2E72               	goto	l209
  5577     0E68                     l210:
  5578     0E68  0000               	nop	;# 
  5579     0E69  0000               	nop	;# 
  5580     0E6A  0000               	nop	;# 
  5581     0E6B  0000               	nop	;# 
  5582     0E6C                     l1751:
  5583                           
  5584                           ;main.c: 144:     }
  5585     0E6C  3001               	movlw	1
  5586     0E6D  07F4               	addwf	delay_us@i,f
  5587     0E6E  1803               	skipnc
  5588     0E6F  0AF5               	incf	delay_us@i+1,f
  5589     0E70  3000               	movlw	0
  5590     0E71  07F5               	addwf	delay_us@i+1,f
  5591     0E72                     l209:
  5592     0E72  0873               	movf	delay_us@x+1,w
  5593     0E73  0275               	subwf	delay_us@i+1,w
  5594     0E74  1D03               	skipz
  5595     0E75  2E78               	goto	u1625
  5596     0E76  0872               	movf	delay_us@x,w
  5597     0E77  0274               	subwf	delay_us@i,w
  5598     0E78                     u1625:
  5599     0E78  1C03               	skipc
  5600     0E79  2E7B               	goto	u1621
  5601     0E7A  2E7C               	goto	u1620
  5602     0E7B                     u1621:
  5603     0E7B  2E68               	goto	l210
  5604     0E7C                     u1620:
  5605     0E7C                     l212:
  5606     0E7C  0008               	return
  5607     0E7D                     __end_of_delay_us:
  5608                           
  5609                           	psect	text35
  5610     0E4F                     __ptext35:	
  5611 ;; *************** function _ISR *****************
  5612 ;; Defined at:
  5613 ;;		line 179 in file "main.c"
  5614 ;; Parameters:    Size  Location     Type
  5615 ;;		None
  5616 ;; Auto vars:     Size  Location     Type
  5617 ;;		None
  5618 ;; Return value:  Size  Location     Type
  5619 ;;                  1    wreg      void 
  5620 ;; Registers used:
  5621 ;;		status,0
  5622 ;; Tracked objects:
  5623 ;;		On entry : 0/0
  5624 ;;		On exit  : 0/0
  5625 ;;		Unchanged: 0/0
  5626 ;; Data sizes:     COMMON   BANK0   BANK1   BANK3   BANK2
  5627 ;;      Params:         0       0       0       0       0
  5628 ;;      Locals:         0       0       0       0       0
  5629 ;;      Temps:          2       0       0       0       0
  5630 ;;      Totals:         2       0       0       0       0
  5631 ;;Total ram usage:        2 bytes
  5632 ;; Hardware stack levels used: 1
  5633 ;; This function calls:
  5634 ;;		Nothing
  5635 ;; This function is called by:
  5636 ;;		Interrupt level 1
  5637 ;; This function uses a non-reentrant model
  5638 ;;
  5639                           
  5640     0E4F                     _ISR:	
  5641                           ;psect for function _ISR
  5642                           
  5643     0E4F                     i1l1653:
  5644                           
  5645                           ;main.c: 180:     PORTBbits.RB0 = !PORTBbits.RB0;
  5646     0E4F  1003               	clrc
  5647     0E50  1283               	bcf	3,5	;RP0=0, select bank0
  5648     0E51  1303               	bcf	3,6	;RP1=0, select bank0
  5649     0E52  1C06               	btfss	6,0	;volatile
  5650     0E53  1403               	setc
  5651     0E54  1803               	btfsc	3,0
  5652     0E55  2E57               	goto	u137_21
  5653     0E56  2E5B               	goto	u137_20
  5654     0E57                     u137_21:
  5655     0E57  1283               	bcf	3,5	;RP0=0, select bank0
  5656     0E58  1303               	bcf	3,6	;RP1=0, select bank0
  5657     0E59  1406               	bsf	6,0	;volatile
  5658     0E5A  2E5E               	goto	u138_24
  5659     0E5B                     u137_20:
  5660     0E5B  1283               	bcf	3,5	;RP0=0, select bank0
  5661     0E5C  1303               	bcf	3,6	;RP1=0, select bank0
  5662     0E5D  1006               	bcf	6,0	;volatile
  5663     0E5E                     u138_24:
  5664     0E5E                     i1l229:
  5665     0E5E  0871               	movf	??_ISR+1,w
  5666     0E5F  008A               	movwf	10
  5667     0E60  0E70               	swapf	??_ISR,w
  5668     0E61  0083               	movwf	3
  5669     0E62  0EFE               	swapf	btemp,f
  5670     0E63  0E7E               	swapf	btemp,w
  5671     0E64  0009               	retfie
  5672     0E65                     __end_of_ISR:
  5673     007E                     btemp	set	126	;btemp
  5674     007E                     wtemp0	set	126
  5675                           
  5676                           	psect	intentry
  5677     0004                     __pintentry:	
  5678                           ;incstack = 0
  5679                           ; Regs used in _ISR: [status,0]
  5680                           
  5681     0004                     interrupt_function:
  5682     007E                     saved_w	set	btemp
  5683     0004  00FE               	movwf	btemp
  5684     0005  0E03               	swapf	3,w
  5685     0006  00F0               	movwf	??_ISR
  5686     0007  080A               	movf	10,w
  5687     0008  00F1               	movwf	??_ISR+1
  5688     0009  120A  158A  2E4F   	ljmp	_ISR
  5689                           
  5690                           	psect	config
  5691                           
  5692                           ;Config register CONFIG @ 0x2007
  5693                           ;	Oscillator Selection bits
  5694                           ;	FOSC = XT, XT oscillator
  5695                           ;	Watchdog Timer Enable bit
  5696                           ;	WDTE = OFF, WDT disabled
  5697                           ;	Power-up Timer Enable bit
  5698                           ;	PWRTE = ON, PWRT enabled
  5699                           ;	Brown-out Reset Enable bit
  5700                           ;	BOREN = OFF, BOR disabled
  5701                           ;	Low-Voltage (Single-Supply) In-Circuit Serial Programming Enable bit
  5702                           ;	LVP = OFF, RB3 is digital I/O, HV on MCLR must be used for programming
  5703                           ;	Data EEPROM Memory Code Protection bit
  5704                           ;	CPD = OFF, Data EEPROM code protection off
  5705                           ;	Flash Program Memory Write Enable bits
  5706                           ;	WRT = OFF, Write protection off; all program memory may be written to by EECON control
  5707                           ;	In-Circuit Debugger Mode bit
  5708                           ;	DEBUG = 0x1, unprogrammed default
  5709                           ;	Flash Program Memory Code Protection bit
  5710                           ;	CP = OFF, Code protection off
  5711     2007                     	org	8199
  5712     2007  3F31               	dw	16177

Data Sizes:
    Strings     0
    Constant    0
    Data        1
    BSS         65
    Persistent  0
    Stack       0

Auto Spaces:
    Space          Size  Autos    Used
    COMMON           14     10      12
    BANK0            80     51      65
    BANK1            80      0      50
    BANK3            96      0       0
    BANK2            96      0       0

Pointer List with Targets:

    None.

Critical Paths under _main in COMMON

    _adc->___lwdiv
    _Set_LED_DutyCycle->___wmul
    ___awdiv->___wmul
    _Read_Ultrasonic2->___xxtofl
    _Read_Ultrasonic1->___xxtofl
    ___fltol->___xxtofl
    ___fldiv->___xxtofl
    _Set_PWM_Duty->___lmul
    ___aldiv->___lmul
    _DHT11_Read->_DHT11_Read_Byte
    _DHT11_Start->_delay_ms
    _DHT11_Read_Byte->_delay_us
    _DHT11_Check_Response->_delay_us

Critical Paths under _ISR in COMMON

    None.

Critical Paths under _main in BANK0

    _main->_Read_Ultrasonic1
    _main->_Read_Ultrasonic2
    _Set_LED_DutyCycle->___awdiv
    _Read_Ultrasonic2->___fltol
    _Read_Ultrasonic1->___fltol
    ___fltol->___fldiv
    ___fldiv->___xxtofl
    _openFridge->_Set_PWM_Duty
    _closeFridge->_Set_PWM_Duty
    _Set_PWM_Duty->___aldiv
    ___aldiv->___lmul

Critical Paths under _ISR in BANK0

    None.

Critical Paths under _main in BANK1

    None.

Critical Paths under _ISR in BANK1

    None.

Critical Paths under _main in BANK3

    None.

Critical Paths under _ISR in BANK3

    None.

Critical Paths under _main in BANK2

    None.

Critical Paths under _ISR in BANK2

    None.

Call Graph Tables:

 ---------------------------------------------------------------------------------
 (Depth) Function   	        Calls       Base Space   Used Autos Params    Refs
 ---------------------------------------------------------------------------------
 (0) _main                                                 3     3      0   16129
                                             48 BANK0      3     3      0
                         _DHT11_Read
                 _Initialize_Hbridge
                    _Initialize_UART
                           _LED_Init
                               _MOVE
                           _PWM_Init
                   _Read_Ultrasonic1
                   _Read_Ultrasonic2
                  _Set_LED_DutyCycle
                               _Stop
                    _Ultrasonic_Init
                                _adc
                        _closeFridge
                         _init_timer
 ---------------------------------------------------------------------------------
 (1) _init_timer                                           0     0      0       0
 ---------------------------------------------------------------------------------
 (1) _adc                                                  4     2      2     382
                                              0 BANK0      4     2      2
                            ___lwdiv
 ---------------------------------------------------------------------------------
 (2) ___lwdiv                                              7     3      4     314
                                              2 COMMON     7     3      4
 ---------------------------------------------------------------------------------
 (1) _Ultrasonic_Init                                      0     0      0       0
 ---------------------------------------------------------------------------------
 (1) _Set_LED_DutyCycle                                    5     3      2    1365
                                              8 COMMON     1     1      0
                                              8 BANK0      4     2      2
                            ___awdiv
                             ___wmul
 ---------------------------------------------------------------------------------
 (2) ___awdiv                                              8     4      4     625
                                              0 BANK0      8     4      4
                             ___wmul (ARG)
 ---------------------------------------------------------------------------------
 (1) _Read_Ultrasonic2                                     6     4      2    3358
                                             42 BANK0      6     4      2
                            ___fldiv
                            ___fltol
                           ___xxtofl
                           _delay_us
 ---------------------------------------------------------------------------------
 (1) _Read_Ultrasonic1                                     6     4      2    3389
                                             42 BANK0      6     4      2
                            ___fldiv
                            ___fltol
                           ___xxtofl
                           _delay_us
 ---------------------------------------------------------------------------------
 (2) ___xxtofl                                            14    10      4     474
                                              2 COMMON     8     4      4
                                              0 BANK0      6     6      0
 ---------------------------------------------------------------------------------
 (2) ___fltol                                             10     6      4     517
                                             32 BANK0     10     6      4
                            ___fldiv (ARG)
                           ___xxtofl (ARG)
 ---------------------------------------------------------------------------------
 (2) ___fldiv                                             26    18      8    1425
                                              6 BANK0     26    18      8
                           ___xxtofl (ARG)
 ---------------------------------------------------------------------------------
 (1) _PWM_Init                                             0     0      0       0
 ---------------------------------------------------------------------------------
 (1) _MOVE                                                 0     0      0    3288
                           _Backward
                            _Forward
                               _Left
                              _Right
                               _Stop
                      _UART_get_char
                        _closeFridge
                         _openFridge
 ---------------------------------------------------------------------------------
 (2) _openFridge                                           0     0      0    1644
                       _Set_PWM_Duty
 ---------------------------------------------------------------------------------
 (1) _closeFridge                                          0     0      0    1644
                       _Set_PWM_Duty
 ---------------------------------------------------------------------------------
 (2) _Set_PWM_Duty                                         7     5      2    1644
                                             20 BANK0      7     5      2
                            ___aldiv
                             ___lmul
                             ___wmul
 ---------------------------------------------------------------------------------
 (3) ___wmul                                               6     2      4     396
                                              2 COMMON     6     2      4
 ---------------------------------------------------------------------------------
 (3) ___lmul                                              13     5      8     316
                                              2 COMMON     8     0      8
                                              0 BANK0      5     5      0
 ---------------------------------------------------------------------------------
 (3) ___aldiv                                             15     7      8     625
                                              5 BANK0     15     7      8
                             ___lmul (ARG)
                             ___wmul (ARG)
 ---------------------------------------------------------------------------------
 (2) _UART_get_char                                        0     0      0       0
 ---------------------------------------------------------------------------------
 (1) _Stop                                                 0     0      0       0
 ---------------------------------------------------------------------------------
 (2) _Right                                                0     0      0       0
 ---------------------------------------------------------------------------------
 (2) _Left                                                 0     0      0       0
 ---------------------------------------------------------------------------------
 (2) _Forward                                              0     0      0       0
 ---------------------------------------------------------------------------------
 (2) _Backward                                             0     0      0       0
 ---------------------------------------------------------------------------------
 (1) _LED_Init                                             0     0      0       0
 ---------------------------------------------------------------------------------
 (1) _Initialize_UART                                      0     0      0       0
 ---------------------------------------------------------------------------------
 (1) _Initialize_Hbridge                                   0     0      0       0
 ---------------------------------------------------------------------------------
 (1) _DHT11_Read                                           1     1      0    2703
               _DHT11_Check_Response
                    _DHT11_Read_Byte
                        _DHT11_Start
 ---------------------------------------------------------------------------------
 (2) _DHT11_Start                                          0     0      0     974
                           _delay_ms
                           _delay_us
 ---------------------------------------------------------------------------------
 (3) _delay_ms                                             6     4      2     168
                                              2 COMMON     6     4      2
 ---------------------------------------------------------------------------------
 (2) _DHT11_Read_Byte                                      3     3      0     898
                                              6 COMMON     3     3      0
                           _delay_us
 ---------------------------------------------------------------------------------
 (2) _DHT11_Check_Response                                 1     1      0     830
                                              6 COMMON     1     1      0
                           _delay_us
 ---------------------------------------------------------------------------------
 (2) _delay_us                                             4     2      2     806
                                              2 COMMON     4     2      2
 ---------------------------------------------------------------------------------
 Estimated maximum stack depth 3
 ---------------------------------------------------------------------------------
 (Depth) Function   	        Calls       Base Space   Used Autos Params    Refs
 ---------------------------------------------------------------------------------
 (5) _ISR                                                  2     2      0       0
                                              0 COMMON     2     2      0
 ---------------------------------------------------------------------------------
 Estimated maximum stack depth 5
 ---------------------------------------------------------------------------------

 Call Graph Graphs:

 _main (ROOT)
   _DHT11_Read
     _DHT11_Check_Response
       _delay_us
     _DHT11_Read_Byte
       _delay_us
     _DHT11_Start
       _delay_ms
       _delay_us
   _Initialize_Hbridge
   _Initialize_UART
   _LED_Init
   _MOVE
     _Backward
     _Forward
     _Left
     _Right
     _Stop
     _UART_get_char
     _closeFridge
       _Set_PWM_Duty
         ___aldiv
           ___lmul (ARG)
           ___wmul (ARG)
         ___lmul
         ___wmul
     _openFridge
       _Set_PWM_Duty
   _PWM_Init
   _Read_Ultrasonic1
     ___fldiv
       ___xxtofl (ARG)
     ___fltol
       ___fldiv (ARG)
       ___xxtofl (ARG)
     ___xxtofl
     _delay_us
   _Read_Ultrasonic2
     ___fldiv
     ___fltol
     ___xxtofl
     _delay_us
   _Set_LED_DutyCycle
     ___awdiv
       ___wmul (ARG)
     ___wmul
   _Stop
   _Ultrasonic_Init
   _adc
     ___lwdiv
   _closeFridge
   _init_timer

 _ISR (ROOT)

 Address spaces:
Name               Size   Autos  Total    Cost      Usage
BANK3               60      0       0       9        0.0%
BITBANK3            60      0       0       8        0.0%
SFR3                 0      0       0       4        0.0%
BITSFR3              0      0       0       4        0.0%
BANK2               60      0       0      11        0.0%
BITBANK2            60      0       0      10        0.0%
SFR2                 0      0       0       5        0.0%
BITSFR2              0      0       0       5        0.0%
BANK1               50      0      32       7       62.5%
BITBANK1            50      0       0       6        0.0%
SFR1                 0      0       0       2        0.0%
BITSFR1              0      0       0       2        0.0%
BANK0               50     33      41       5       81.2%
BITBANK0            50      0       0       4        0.0%
SFR0                 0      0       0       1        0.0%
BITSFR0              0      0       0       1        0.0%
COMMON               E      A       C       1       85.7%
BITCOMMON            E      0       0       0        0.0%
CODE                 0      0       0       0        0.0%
DATA                 0      0      7F      12        0.0%
ABS                  0      0      7F       3        0.0%
NULL                 0      0       0       0        0.0%
STACK                0      0       0       2        0.0%
EEDATA             100      0       0       0        0.0%


Microchip Technology PIC Macro Assembler V2.46 build 20240104201356 
Symbol Table                                                                                   Tue Jan 14 21:51:19 2025

                ___fldiv@aexp 003F                  ___fldiv@bexp 003E                             _b 00A0  
                ___fldiv@sign 0037                  ___awdiv@sign 0025                            fsr 0004  
         ___wmul@multiplicand 0074     __end_of_Set_LED_DutyCycle 07AA                           l201 0F1E  
                         l210 0E68                           l203 0F05                           l212 0E7C  
                         l300 0E35                           l221 0607                           l206 0F28  
                         l302 0E3C                           l311 0E13                           l215 0E2C  
                         l224 0DD5                           l209 0E72                           l305 0F5E  
                         l322 0EFA                           l330 0F88                           l218 0E4E  
                         l314 0E1F                           l234 07A9                           l308 0F85  
                         l325 0EFF                           l317 0EB3                           l341 0F55  
                         l237 07FE                           l334 0FAC                           l246 0450  
                         l272 0DDC                           l504 0504                           l337 0FBB  
                         l281 0DF8                           l441 0ED8                           l514 058C  
                         l266 04EF                           l275 0DEA                           l284 0DF1  
                         l269 0E94                           l453 07F1                           l278 0DE3  
                         l287 0DFF                           l439 0EC0                           l640 066A  
                         l297 06F5                           l633 067F                           l643 067F  
                         l812 0173                           l719 0FFF                           l592 075E  
                         l818 01E5                           l880 0315                           l882 03AA  
                         l796 0081                           l893 0374                           l798 01F9  
                         l894 0380                           _RB0 0030                           _RB1 0031  
                         _RB2 0032                           _RC0 0038                           _RC1 0039  
                         _RB3 0033                           _RB4 0034                           _RB5 0035  
                         _RB6 0036                           _RC5 003D                           _RB7 0037  
                         _RD5 0045                           _RD6 0046                           _PR2 0092  
                         _ISR 0E4F                           _RX9 00C6                           _TX9 04C6  
                         _adc 0F56                           _uv1 0057                           _uv2 0055  
                         indf 0000                          ?_ISR 0070                  ___fltol@exp1 0049  
                        ?_adc 0020                          l2001 00DA                          l2011 00F8  
                        l2003 00DC                          l2005 00E1                          l2013 0101  
                        l2021 0126                          l2101 032D                          l2031 0143  
                        l2023 012C                          l2015 0113                          l2007 00F3  
                        l2111 0358                          l2103 0336                          l2041 0158  
                        l2033 0144                          l2025 0134                          l2017 0114  
                        l2009 00F7                          l2121 0382                          l2113 035F  
                        l2105 033D                          l2051 017D                          l2043 015C  
                        l2035 014D                          l2027 0136                          l2019 0122  
                        l2123 0398                          l2115 036A                          l2107 0341  
                        l2141 0E85                          l2133 0E7D                          l2061 01BB  
                        l2053 018B                          l2045 0170                          l2029 013F  
                        l2037 0153                          l2125 039D                          l2117 036E  
                        l2109 034F                          l2151 0DD6                          l2143 0E88  
                        l2135 0E81                          l2071 01E9                          l2063 01C9  
                        l2055 018F                          l2039 0157                          l2127 03A1  
                        l2119 0378                          l2145 0E8B                          l2137 0E83  
                        l2073 01ED                          l2065 01D8                          l2057 01A8  
                        l2049 0178                          l2129 03A2                          l2161 07F9  
                        l2153 07F2                          l2147 0E8E                          l2139 0E84  
                        l2171 0E23                          l2075 01EF                          l2067 01DC  
                        l2059 01AE                          l2091 030D                          l2163 07FA  
                        l2155 07F6                          l2333 0F29                          l2149 0E91  
                        l2181 0E4D                          l2173 0E2B                          l2077 01F3  
                        l2069 01E4                          l2093 031D                          l2085 02F4  
                        l2501 0708                          l2165 07FD                          l2157 07F7  
                        l2335 0F38                          l2175 0E3D                          l2431 07D8  
                        l2423 07AA                          l2087 02F9                          l2511 071C  
                        l2503 070D                          l2159 07F8                          l2167 0DD3  
                        l1801 0EE9                          l2177 0E40                          l2441 04F7  
                        l2433 07E9                          l2425 07B4                          l2169 0E20  
                        l2097 0326                          l2089 02FD                          l2601 03AB  
                        l2521 0742                          l2513 0723                          l2505 0711  
                        l1803 0EF2                          l1811 0F86                          l2179 0E48  
                        l2451 0527                          l2443 0508                          l2427 07B8  
                        l2099 0329                          l2611 03C1                          l2603 03B1  
                        l2531 075A                          l2523 0743                          l2515 0727  
                        l2507 0713                          l1805 0EF8                          l1821 0F9D  
                        l2461 0544                          l2453 052A                          l2445 0513  
                        l2437 04F0                          l2429 07CF                          l2701 06B8  
                        l2541 061C                          l2613 03CA                          l2605 03B3  
                        l2525 074A                          l2517 072B                          l2509 0719  
                        l1751 0E6C                          l1807 0EFE                          l1823 0FB0  
                        l2463 0556                          l2455 0533                          l2471 0574  
                        l2447 0517                          l2439 04F3                          l1671 0EBA  
                        l2711 06D4                          l2703 06BD                          l2551 063E  
                        l2543 062F                          l2535 0608                          l2631 0403  
                        l2623 03E9                          l2615 03D0                          l2607 03B4  
                        l2519 073C                          l2527 0750                          l1825 0FB4  
                        l1817 0F8E                          l1745 0F09                          l1737 0F00  
                        l1761 0DF9                          l2473 0579                          l2465 0564  
                        l2457 0537                          l2449 051F                          l1673 0EC7  
                        l2481 05E1                          l2721 06F0                          l2713 06D6  
                        l2705 06C5                          l2561 0658                          l2545 0630  
                        l2537 0613                          l2633 0411                          l2625 03EE  
                        l2617 03DE                          l2609 03BD                          l2529 0755  
                        l1921 0FCE                          l1913 0FBC                          l2801 02DA  
                        l1827 0FBA                          l1819 0F97                          l1747 0F18  
                        l1739 0F03                          l1771 0DEB                          l2475 0584  
                        l2467 0565                          l2459 053B                          l1675 0ECE  
                        l1667 0EB4                          l2483 05ED                          l2715 06DB  
                        l2707 06C7                          l2571 0674                          l2547 0638  
                        l2627 03F7                          l2619 03E4                          l2651 0463  
                        l2643 0451                          l2491 06F6                          l1931 0FEE  
                        l1923 0FD2                          l1915 0FBE                          l2803 02E0  
                        l2731 0213                          l2723 01FA                          l1749 0E65  
                        l1765 0DE4                          l1781 0E3B                          l1773 0E2D  
                        l2469 056E                          l1677 0ED4                          l1669 0EB6  
                        l2485 05FE                          l2717 06E3                          l2709 06CC  
                        l1941 0030                          l2557 0646                          l2549 063A  
                        l2629 03FF                          l2661 0489                          l2653 0467  
                        l2645 0457                          l2493 06F9                          l1933 0FF5  
                        l1925 0FD6                          l1917 0FC4                          l2573 0F56  
                        l2805 02E4                          l2741 0225                          l2733 0218  
                        l2725 01FF                          l1791 0EA4                          l1767 0DDD  
                        l1775 0E33                          l2479 058D                          l2487 0E08  
                        l2719 06E8                          l1951 0043                          l1943 0034  
                        l2567 065F                          l2559 064F                          l2639 0418  
                        l2671 04B2                          l2663 0492                          l2655 0470  
                        l2647 0459                          l2495 06FD                          l2591 077A  
                        l2583 075F                          l1927 0FE7                          l1919 0FC7  
                        l1935 0FFB                          l2575 0F62                          l2807 02EA  
                        l2751 0237                          l2743 0228                          l2735 0220  
                        l2727 0204                          l1793 0EB0                          l1769 0DF2  
                        l1777 0E39                          l2489 0E14                          l2681 0688  
                        l1961 005B                          l1953 004B                          l1945 0038  
                        l2569 066F                          l2665 049A                          l2657 0476  
                        l2649 045A                          l2497 0702                          l2585 076E  
                        l1929 0FED                          l2577 0F6A                          l2761 024F  
                        l2753 023E                          l2745 0229                          l2737 0223  
                        l2729 020E                          l1795 0ED9                          l1787 0E95  
                        l2691 06A2                          l2683 068E                          l1971 006E  
                        l1963 005F                          l1955 004C                          l1947 0039  
                        l1939 002B                          l2675 04B7                          l2667 049E  
                        l2659 0484                          l2499 0704                          l2595 077C  
                        l2587 0774                          l2579 0F81                          l2771 0285  
                        l2763 0258                          l2755 0240                          l2747 022A  
                        l2739 0224                          l1797 0EDA                          l1789 0E9B  
                        l2693 06A7                          l2685 0693                          l1981 0095  
                        l1973 0076                          l1965 0063                          l1949 003E  
                        l1957 004E                          l2669 04AC                          l2597 079E  
                        l2589 077A                          l2781 02AA                          l2773 0290  
                        l2765 0261                          l2757 0242                          l2749 022F  
                        l1799 0EE3                          l2695 06A9                          l2687 0695  
                        l2679 0680                          l1983 0099                          l1975 0077  
                        l1967 0064                          l1959 0056                          l2599 07A0  
                        l2791 02C5                          l2775 0299                          l2783 02AF  
                        l2767 0271                          l2759 0244                          l2697 06AE  
                        l2689 069A                          l1993 00B0                          l1969 0069  
                        l1977 0079                          l2793 02CA                          l2785 02B0  
                        l2777 029F                          l2769 027A                          l2699 06B6  
                        l1995 00C2                          l1979 0089                          l1987 00A2  
                        l2787 02B9                          l2795 02CF                          l2779 02A5  
                        l1997 00CA                          l1989 00A7                          l2797 02D0  
                        l2789 02BF                          l1999 00D2                          l2799 02D5  
                        _BRGH 04C2                          _CREN 00C4                          u2000 0038  
                        u2001 0037                          u2010 003E                          u2011 003D  
                        u2020 0043                          u2021 0042                          u2110 00F7  
                        u2030 0063                          u2111 00F6                          u2031 0062  
                        u2200 015C                          u2040 0069                          u3000 0750  
                        u2201 015B                          u2105 00EC                          u2041 0068  
                        u3001 074F                          u1410 0EBA                          u2210 0170  
                        u2130 0113                          u2050 006E                          u3010 0755  
                        u1411 0EB9                          u2211 016F                          u2131 0112  
                        u2051 006D                          u3011 0754                          u2220 0177  
                        u2140 012C                          u2060 0089                          u3100 066F  
                        u3020 0613                          u2300 02FD                          u2221 0176  
                        u2141 012B                          u2125 00FA                          u2061 0088  
                        u3101 066E                          u3021 0612                          u2301 02FC  
                        u2230 017D                          u2150 0134                          u2070 00A7  
                        u3110 0674                          u3030 062A                          u2310 031D  
                        u2231 017C                          u2151 0133                          u2135 010F  
                        u2071 00A6                          u3111 0673                          u2311 031C  
                        u1600 0F18                          u1440 0ED4                          u2240 018F  
                        u2080 00E1                          u3040 063E                          u2400 038D  
                        u3200 0417                          u3120 0F62                          u1601 0F17  
                        u1441 0ED3                          u1425 0EC1                          u2241 018E  
                        u2081 00E0                          u3041 063D                          u3201 0416  
                        u3121 0F61                          u1610 0F28                          u2250 019E  
                        u2170 0143                          u3050 0645                          u2410 039D  
                        u2330 033C                          u3210 0476                          u3130 076E  
                        u1611 0F27                          u1435 0EC8                          u2171 0142  
                        u3051 0644                          u3035 0625                          u2411 039C  
                        u2331 033B                          u3211 0475                          u3131 076D  
                        u1620 0E7C                          u3300 06B6                          u2260 01BB  
                        u2420 03A1                          u3220 0484                          u3140 077A  
                        u1621 0E7B                          u3301 06B5                          u2261 01BA  
                        u2165 0138                          u2421 03A0                          u2405 0388  
                        u2325 032E                          u3221 0483                          u3141 0779  
                        u1710 0FB0                          u1630 0E33                          u3310 06C5  
                        u2270 01D8                          u2190 0157                          u3070 0657  
                        u2350 035E                          u3150 03D0                          u3230 049E  
                        u1711 0FAF                          u1615 0F24                          u1631 0E32  
                        u3311 06C4                          u2271 01D7                          u2255 0199  
                        u2191 0156                          u2095 00E3                          u3071 0656  
                        u2351 035D                          u3151 03CF                          u3231 049D  
                        u3135 076A                          u1720 0FBA                          u1704 0FA5  
                        u1640 0E39                          u3320 06D4                          u2280 01ED  
                        u3080 065E                          u3160 03DE                          u3240 04AC  
                        u3400 02B9                          u1625 0E78                          u1721 0FB9  
                        u1705 0FA3                          u1641 0E38                          u3321 06D3  
                        u2281 01EC                          u2265 01B7                          u2185 0146  
                        u3081 065D                          u3065 0647                          u2345 0350  
                        u3161 03DD                          u3241 04AB                          u3401 02B8  
                        u1650 0EE9                          u3330 06E3                          u2370 036E  
                        u2290 02F9                          u3170 03E4                          u3250 04B2  
                        u3410 02BF                          u1651 0EE8                          u3331 06E2  
                        u2275 01D4                          u2371 036D                          u2291 02F8  
                        u3171 03E3                          u3251 04B1                          u3411 02BE  
                        u1660 0EF8                          u3340 06F0                          u3260 068E  
                        u2380 0374                          u3180 0403                          u3420 02C5  
                        u1661 0EF7                          u3341 06EF                          u3261 068D  
                        u2381 0373                          u2365 0363                          u3181 0402  
                        u3421 02C4                          u1670 0EFE                          u3270 0693  
                        u2390 0378                          u3190 0411                          u3430 02E0  
                        u3350 023E                          u1671 0EFD                          u3271 0692  
                        u3095 0661                          u2391 0377                          u3191 0410  
                        u3431 02DF                          u3351 023D                          u1680 0F8E  
                        u3280 06A2                          u3440 02EA                          u3360 0258  
                        u1681 0F8D                          u3281 06A1                          u3441 02E9  
                        u3361 0257                          u1690 0F9D                          u2810 07E9  
                        u3290 06A7                          u1930 0FC4                          u3370 0299  
                        u1691 0F9C                          u2811 07E8                          u3291 06A6  
                        u1931 0FC3                          u3371 0298                          u2660 0F38  
                        u2900 0574                          u2820 04F7                          u3380 029F  
                        u2661 0F37                          u2901 0573                          u2821 04F6  
                        u2805 07D9                          u3381 029E                          u2910 0579  
                        u2830 0508                          u1950 0FD6                          u3390 02A5  
                        u2911 0578                          u2831 0507                          u1951 0FD5  
                        u3391 02A4                          u2840 0527                          u2920 06FD  
                        u2841 0526                          u2921 06FC                          u1945 0FC8  
                        u2770 07B8                          u2930 0708                          u1970 0FE7  
                        u2771 07B7                          u2931 0707                          u1971 0FE6  
                        u2860 053B                          u2940 0719                          u2861 053A  
                        u2781 07C1                          u2941 0718                          u1965 0FD7  
                        u2782 07C8                          u1990 0FFB                          u2855 052C  
                        u2783 07CF                          u1991 0FFA                          u1975 0FE3  
                        u2880 0556                          u2960 072B                          u2881 0555  
                        u2961 072A                          u1985 0FEF                          u2875 053D  
                        u2795 07D1                          u2955 071D                          u2980 073C  
                        _RCIF 0065                          u2885 0552                          u2981 073B  
                        u2895 0566                          u2975 072C                          u2985 0738  
                        u2995 0744                          _OERR 00C1                          _MOVE 0680  
                        _SPEN 00C7                          _TXEN 04C5                          _TXIF 0064  
                        _SYNC 04C4                          _Left 0DEB                          _Stop 0DF9  
                        _main 01FA                          btemp 007E                          start 000C  
             ___fldiv@new_exp 0038                         ??_ISR 0070               __end_of_Forward 0DEB  
                       ??_adc 0079                         ?_MOVE 0070              __end_of_LED_Init 0E4F  
                       ?_Left 0070                         ?_Stop 0070                 ___fltol@sign1 0048  
             __end_of___aldiv 058D                         ?_main 0070               __end_of___fldiv 01FA  
             __end_of___awdiv 075F               __end_of___fltol 0680    __end_of_Initialize_Hbridge 0DDD  
             ___awdiv@divisor 0020                         _T1CON 0010                         _T2CON 0012  
             __end_of___lwdiv 1000                         i1l229 0E5E               ___awdiv@counter 0024  
                       _RCREG 001A                         _SPBRG 0099                         _TXREG 0019  
         ___lmul@multiplicand 0076                         _Right 0DF2             ??_Ultrasonic_Init 0072  
                       _timer 0053                         pclath 000A              __end_of_PWM_Init 0E2D  
            __end_of_Backward 0DE4                         status 0003                         wtemp0 007E  
            _Read_Ultrasonic1 03AB              _Read_Ultrasonic2 0451             ??_DHT11_Read_Byte 0076  
                __end_of_MOVE 06F6                  __end_of_Left 0DF2               __initialization 000F  
                __end_of_Stop 0E00                  __end_of_main 02F1                        ??_MOVE 007A  
                      ??_Left 0072              Set_PWM_Duty@duty 0039                        ??_Stop 0072  
                      ??_main 0050                        ?_Right 0070                        _ADCON0 001F  
                      _ADCON1 009F                        _ADRESH 001E                        _ADRESL 009E  
                      _CCPR1L 0015                        _CCPR2L 001B              ___awdiv@dividend 0022  
                      i1l1653 0E4F                        u137_20 0E5B                        u137_21 0E57  
                      u138_24 0E5E  __end_of_DHT11_Check_Response 0F00                        _TRISA0 0428  
                      _TRISB0 0430                        _TRISB1 0431                        _TRISB2 0432  
                      _TRISC0 0438                        _TRISC1 0439                        _TRISB3 0433  
                      _TRISC2 043A                        _TRISB4 0434                        _TRISB5 0435  
                      _TRISB6 0436                        _TRISC5 043D                        _TRISB7 0437  
                      _TRISC6 043E                        _TRISD5 0445                        _TRISC7 043F  
                      _TRISD6 0446              __end_of___xxtofl 03AB                  ??_DHT11_Read 0079  
         Set_PWM_Duty@duty_us 0034              __end_of_delay_ms 0F29                     ??_Forward 0072  
            __end_of_delay_us 0E7D           DHT11_Read_Byte@data 0077                        ___lmul 07AA  
                   ??___aldiv 002D                        ___wmul 0EB4                     ??___fldiv 002E  
                   ??___awdiv 0078                     ??___fltol 0044                     ??___lwdiv 0076  
            ___awdiv@quotient 0026                 ?_Set_PWM_Duty 0034                        _status 007B  
                __pdataCOMMON 007B                        saved_w 007E            __end_of_DHT11_Read 0F56  
                ___xxtofl@arg 0022                  ___xxtofl@exp 0021                  ___xxtofl@val 0072  
     __end_of__initialization 0027                     ?_LED_Init 0070                    ___fltol@f1 0040  
              __pcstackCOMMON 0070                 __end_of_Right 0DF9                ??_Set_PWM_Duty 0036  
                   ?_PWM_Init 0070                     ?_Backward 0070         __end_of_UART_get_char 0E3D  
                     ??_Right 0072                    __pbssBANK0 0053                    __pbssBANK1 00A0  
                  ??_LED_Init 0072  DHT11_Check_Response@response 0076                    __pmaintext 01FA  
                     ?___lmul 0072                       ?___wmul 0072                    __pintentry 0004  
                     _CCP1CON 0017                       _CCP2CON 001D                ___lmul@product 0021  
             _Ultrasonic_Init 07F2                    ??_PWM_Init 0072                    ??_Backward 0072  
        _DHT11_Check_Response 0ED9      __end_of_Read_Ultrasonic1 0451      __end_of_Read_Ultrasonic2 04F0  
                   ?___xxtofl 0072                     ?_delay_ms 0072                     ?_delay_us 0072  
             _DHT11_Read_Byte 0F86            _Initialize_Hbridge 0DD6                 ??_DHT11_Start 0078  
                     _Forward 0DE4           ?_Initialize_Hbridge 0070                       ___aldiv 04F0  
                     ___fldiv 002B                       ___awdiv 06F6                       ___fltol 0608  
                     _adc_val 005B                       ___lwdiv 0FBC   Set_LED_DutyCycle@percentage 0028  
                  _init_timer 0DD3         ?_DHT11_Check_Response 0070                       __ptext1 0DD3  
                     __ptext2 0F56                       __ptext3 0FBC                       __ptext4 07F2  
                     __ptext5 075F                       __ptext6 06F6                       __ptext7 0451  
                     __ptext8 03AB                       __ptext9 02F1                       _led_val 0059  
                   _T1CONbits 0010             ??_Initialize_UART 0072                    ??___xxtofl 0076  
        Read_Ultrasonic1@time 004C       Read_Ultrasonic1@timeout 004E          Read_Ultrasonic2@time 004C  
        ??_Initialize_Hbridge 0072              ___aldiv@dividend 0029                    ??_delay_ms 0074  
                  ??_delay_us 0074       Read_Ultrasonic2@timeout 004E                    _no_forward 005E  
                     clrloop0 0E01          end_of_initialization 0027                    _openFridge 0E14  
        __end_of_Set_PWM_Duty 0608       __end_of_Ultrasonic_Init 07FF              ___aldiv@quotient 0030  
         __end_of_DHT11_Start 0EB4                     _PORTBbits 0006       __end_of_DHT11_Read_Byte 0FBC  
               ___xxtofl@sign 0020                   ___fldiv@grs 003A                   ___fldiv@rem 0033  
               ??_closeFridge 007A                   _CCP1CONbits 0017                   _CCP2CONbits 001D  
              __end_of___lmul 07F2                __end_of___wmul 0ED9        ??_DHT11_Check_Response 0076  
               __pidataCOMMON 07FF                   ?_init_timer 0070           start_initialization 000F  
                 __end_of_ISR 0E65                   __end_of_adc 0F86                   ?_openFridge 0070  
                 _DHT11_Start 0E95           __end_of_closeFridge 0E14              ?_Ultrasonic_Init 0070  
                    ??___lmul 0020                      ??___wmul 0076              ?_DHT11_Read_Byte 0070  
           ?_Read_Ultrasonic1 004A             ?_Read_Ultrasonic2 004A                     ___fldiv@a 0026  
                   ___fldiv@b 002A                     adc@adcval 0022                   __pbssCOMMON 007A  
                   ___latbits 0002                 __pcstackBANK0 0020            ??_Read_Ultrasonic1 007A  
          ??_Read_Ultrasonic2 007A              DHT11_Read_Byte@i 0078                      ?_Forward 0070  
            ___lwdiv@dividend 0074               _Initialize_UART 0E7D                      ?___aldiv 0025  
                    ?___fldiv 0026                      ?___awdiv 0020                      ?___fltol 0040  
                    ?___lwdiv 0072                     _get_value 0060                  _Set_PWM_Duty 058D  
            ___lwdiv@quotient 0076               ___aldiv@divisor 0025             interrupt_function 0004  
             ___aldiv@counter 002E                ___wmul@product 0076                   _closeFridge 0E08  
                    _LED_Init 0E3D                     delay_ms@i 0074                     delay_ms@j 0076  
                   delay_ms@x 0072                     delay_us@i 0074                     delay_us@x 0072  
                   clear_ram0 0E00                      _GO_nDONE 00FA                      _PWM_Init 0E20  
           ___wmul@multiplier 0072                      _Backward 0DDD                 _UART_get_char 0E2D  
       Set_LED_DutyCycle@duty 002A             ___lmul@multiplier 0072       __end_of_Initialize_UART 0E95  
                  _DHT11_Read 0F29                  ??_init_timer 0072                ?_UART_get_char 0070  
                    ___xxtofl 02F1                      _delay_ms 0F00                      _delay_us 0E65  
             ___lwdiv@divisor 0072               ___lwdiv@counter 0078                      __ptext10 0608  
                    __ptext11 002B                      __ptext20 0E2D                      __ptext12 0E20  
                    __ptext21 0DF9                      __ptext13 0680                      __ptext30 0E95  
                    __ptext22 0DF2                      __ptext14 0E14                      __ptext31 0F00  
                    __ptext23 0DEB                      __ptext15 0E08                      __ptext32 0F86  
                    __ptext24 0DE4                      __ptext16 058D                      __ptext33 0ED9  
                    __ptext25 0DDD                      __ptext17 0EB4                      __ptext34 0E65  
                    __ptext26 0E3D                      __ptext18 07AA                      __ptext35 0E4F  
                    __ptext27 0E7D                      __ptext19 04F0                      __ptext28 0DD6  
                    __ptext29 0F29                   _no_backward 005F                  ??_openFridge 007A  
                ?_DHT11_Start 0070            __end_of_init_timer 0DD6                      _humidity 005D  
          __end_of_openFridge 0E20                    _INTCONbits 000B                      intlevel1 0000  
            ?_Initialize_UART 0070                   ?_DHT11_Read 0070               ??_UART_get_char 0072  
                 _temperature 007A             _Set_LED_DutyCycle 075F            ?_Set_LED_DutyCycle 0028  
                ___aldiv@sign 002F           ??_Set_LED_DutyCycle 0078                  ?_closeFridge 0070  
